---
triple:          'arm64-apple-darwin'
binary-path:     game
relocations:
  - { offsetInCU: 0x373F, offset: 0x373F, size: 0x8, addend: 0x0, symName: __ZNSt3__112__to_addressB8ue170006I7Vector2EEPT_S3_, symObjAddr: 0x117C, symBinAddr: 0x1000029A4, symSize: 0x14 }
  - { offsetInCU: 0x3774, offset: 0x3774, size: 0x8, addend: 0x0, symName: __ZNSt3__18distanceB8ue170006INS_16__deque_iteratorI7Vector2PKS2_RS3_PKS4_lLl512EEEEENS_15iterator_traitsIT_E15difference_typeESA_SA_, symObjAddr: 0x1434, symBinAddr: 0x100002C5C, symSize: 0x4C }
  - { offsetInCU: 0x37B7, offset: 0x37B7, size: 0x8, addend: 0x0, symName: __ZNSt3__1neB8ue170006ERKNS_5dequeI7Vector2NS_9allocatorIS1_EEE13__deque_rangeES7_, symObjAddr: 0x1D78, symBinAddr: 0x1000035A0, symSize: 0x34 }
  - { offsetInCU: 0x37F4, offset: 0x37F4, size: 0x8, addend: 0x0, symName: __ZNSt3__13minB8ue170006ImEERKT_S3_S3_, symObjAddr: 0x20C8, symBinAddr: 0x1000038F0, symSize: 0x2C }
  - { offsetInCU: 0x3837, offset: 0x3837, size: 0x8, addend: 0x0, symName: __ZNSt3__13maxB8ue170006ImEERKT_S3_S3_, symObjAddr: 0x29AC, symBinAddr: 0x1000041D4, symSize: 0x2C }
  - { offsetInCU: 0x387A, offset: 0x387A, size: 0x8, addend: 0x0, symName: __ZNSt3__14swapB8ue170006IPP7Vector2EENS_9enable_ifIXaasr21is_move_constructibleIT_EE5valuesr18is_move_assignableIS5_EE5valueEvE4typeERS5_S8_, symObjAddr: 0x3314, symBinAddr: 0x100004B3C, symSize: 0x3C }
  - { offsetInCU: 0x38CB, offset: 0x38CB, size: 0x8, addend: 0x0, symName: __ZNSt3__13minB8ue170006ImNS_6__lessIvvEEEERKT_S5_S5_T0_, symObjAddr: 0x33CC, symBinAddr: 0x100004BF4, symSize: 0x54 }
  - { offsetInCU: 0x396A, offset: 0x396A, size: 0x8, addend: 0x0, symName: __ZNSt3__14moveB8ue170006IPP7Vector2S3_EET0_T_S5_S4_, symObjAddr: 0x34A0, symBinAddr: 0x100004CC8, symSize: 0x40 }
  - { offsetInCU: 0x39C4, offset: 0x39C4, size: 0x8, addend: 0x0, symName: __ZNSt3__112__to_addressB8ue170006IP7Vector2EEPT_S4_, symObjAddr: 0x35A8, symBinAddr: 0x100004DD0, symSize: 0x14 }
  - { offsetInCU: 0x39F9, offset: 0x39F9, size: 0x8, addend: 0x0, symName: __ZNSt3__16__moveB8ue170006INS_17_ClassicAlgPolicyEPP7Vector2S4_S4_EENS_4pairIT0_T2_EES6_T1_S7_, symObjAddr: 0x35BC, symBinAddr: 0x100004DE4, symSize: 0x44 }
  - { offsetInCU: 0x3A65, offset: 0x3A65, size: 0x8, addend: 0x0, symName: __ZNSt3__123__dispatch_copy_or_moveB8ue170006INS_17_ClassicAlgPolicyENS_11__move_loopIS1_EENS_14__move_trivialEPP7Vector2S7_S7_EENS_4pairIT2_T4_EES9_T3_SA_, symObjAddr: 0x3600, symBinAddr: 0x100004E28, symSize: 0x44 }
  - { offsetInCU: 0x3AE3, offset: 0x3AE3, size: 0x8, addend: 0x0, symName: __ZNSt3__121__unwrap_and_dispatchB8ue170006INS_10__overloadINS_11__move_loopINS_17_ClassicAlgPolicyEEENS_14__move_trivialEEEPP7Vector2S9_S9_Li0EEENS_4pairIT0_T2_EESB_T1_SC_, symObjAddr: 0x3644, symBinAddr: 0x100004E6C, symSize: 0xB4 }
  - { offsetInCU: 0x3B71, offset: 0x3B71, size: 0x8, addend: 0x0, symName: __ZNSt3__114__unwrap_rangeB8ue170006IPP7Vector2S3_EENS_4pairIT0_S5_EET_S7_, symObjAddr: 0x36F8, symBinAddr: 0x100004F20, symSize: 0x60 }
  - { offsetInCU: 0x3D35, offset: 0x3D35, size: 0x8, addend: 0x0, symName: __ZNSt3__113__unwrap_iterB8ue170006IPP7Vector2NS_18__unwrap_iter_implIS3_Lb1EEELi0EEEDTclsrT0_8__unwrapclsr3stdE7declvalIT_EEEES7_, symObjAddr: 0x37A0, symBinAddr: 0x100004FC8, symSize: 0x24 }
  - { offsetInCU: 0x3D79, offset: 0x3D79, size: 0x8, addend: 0x0, symName: __ZNSt3__19make_pairB8ue170006IPP7Vector2S3_EENS_4pairINS_18__unwrap_ref_decayIT_E4typeENS5_IT0_E4typeEEEOS6_OS9_, symObjAddr: 0x37C4, symBinAddr: 0x100004FEC, symSize: 0x38 }
  - { offsetInCU: 0x3DC8, offset: 0x3DC8, size: 0x8, addend: 0x0, symName: __ZNSt3__114__rewrap_rangeB8ue170006IPP7Vector2S3_EET_S4_T0_, symObjAddr: 0x37FC, symBinAddr: 0x100005024, symSize: 0x2C }
  - { offsetInCU: 0x3E14, offset: 0x3E14, size: 0x8, addend: 0x0, symName: __ZNSt3__113__rewrap_iterB8ue170006IPP7Vector2S3_NS_18__unwrap_iter_implIS3_Lb1EEEEET_S6_T0_, symObjAddr: 0x3828, symBinAddr: 0x100005050, symSize: 0x3C }
  - { offsetInCU: 0x3E69, offset: 0x3E69, size: 0x8, addend: 0x0, symName: __ZNSt3__119__copy_trivial_implB8ue170006IP7Vector2S2_EENS_4pairIPT_PT0_EES5_S5_S7_, symObjAddr: 0x3864, symBinAddr: 0x10000508C, symSize: 0x80 }
  - { offsetInCU: 0x3ED1, offset: 0x3ED1, size: 0x8, addend: 0x0, symName: __ZNSt3__119__constexpr_memmoveB8ue170006IP7Vector2S2_Li0EEEPT_S4_PT0_NS_15__element_countE, symObjAddr: 0x38E4, symBinAddr: 0x10000510C, symSize: 0x64 }
  - { offsetInCU: 0x3F3F, offset: 0x3F3F, size: 0x8, addend: 0x0, symName: __ZNSt3__19make_pairB8ue170006IRPP7Vector2S3_EENS_4pairINS_18__unwrap_ref_decayIT_E4typeENS6_IT0_E4typeEEEOS7_OSA_, symObjAddr: 0x3948, symBinAddr: 0x100005170, symSize: 0x38 }
  - { offsetInCU: 0x3FE1, offset: 0x3FE1, size: 0x8, addend: 0x0, symName: __ZNSt3__18distanceB8ue170006INS_13move_iteratorIPP7Vector2EEEENS_15iterator_traitsIT_E15difference_typeES7_S7_, symObjAddr: 0x3BB0, symBinAddr: 0x1000053D8, symSize: 0x3C }
  - { offsetInCU: 0x4024, offset: 0x4024, size: 0x8, addend: 0x0, symName: __ZNSt3__110__distanceB8ue170006INS_13move_iteratorIPP7Vector2EEEENS_15iterator_traitsIT_E15difference_typeES7_S7_NS_26random_access_iterator_tagE, symObjAddr: 0x3DB4, symBinAddr: 0x1000055DC, symSize: 0x30 }
  - { offsetInCU: 0x4071, offset: 0x4071, size: 0x8, addend: 0x0, symName: __ZNSt3__1miB8ue170006IPP7Vector2S3_EEDTmicldtfp_4baseEcldtfp0_4baseEERKNS_13move_iteratorIT_EERKNS5_IT0_EE, symObjAddr: 0x3DE4, symBinAddr: 0x10000560C, symSize: 0x48 }
  - { offsetInCU: 0x40C0, offset: 0x40C0, size: 0x8, addend: 0x0, symName: __ZNSt3__117__libcpp_allocateB8ue170006Emm, symObjAddr: 0x3F9C, symBinAddr: 0x1000057C4, symSize: 0x28 }
  - { offsetInCU: 0x40FD, offset: 0x40FD, size: 0x8, addend: 0x0, symName: __ZNSt3__121__libcpp_operator_newB8ue170006IJmEEEPvDpT_, symObjAddr: 0x3FD8, symBinAddr: 0x100005800, symSize: 0x24 }
  - { offsetInCU: 0x4136, offset: 0x4136, size: 0x8, addend: 0x0, symName: __ZNSt3__113move_backwardB8ue170006IPP7Vector2S3_EET0_T_S5_S4_, symObjAddr: 0x3FFC, symBinAddr: 0x100005824, symSize: 0x40 }
  - { offsetInCU: 0x4190, offset: 0x4190, size: 0x8, addend: 0x0, symName: __ZNSt3__115__move_backwardB8ue170006INS_17_ClassicAlgPolicyEPP7Vector2S4_S4_EENS_4pairIT0_T2_EES6_T1_S7_, symObjAddr: 0x403C, symBinAddr: 0x100005864, symSize: 0x44 }
  - { offsetInCU: 0x41FC, offset: 0x41FC, size: 0x8, addend: 0x0, symName: __ZNSt3__123__dispatch_copy_or_moveB8ue170006INS_17_ClassicAlgPolicyENS_20__move_backward_loopIS1_EENS_23__move_backward_trivialEPP7Vector2S7_S7_EENS_4pairIT2_T4_EES9_T3_SA_, symObjAddr: 0x4080, symBinAddr: 0x1000058A8, symSize: 0x44 }
  - { offsetInCU: 0x427A, offset: 0x427A, size: 0x8, addend: 0x0, symName: __ZNSt3__121__unwrap_and_dispatchB8ue170006INS_10__overloadINS_20__move_backward_loopINS_17_ClassicAlgPolicyEEENS_23__move_backward_trivialEEEPP7Vector2S9_S9_Li0EEENS_4pairIT0_T2_EESB_T1_SC_, symObjAddr: 0x40C4, symBinAddr: 0x1000058EC, symSize: 0xB4 }
  - { offsetInCU: 0x434E, offset: 0x434E, size: 0x8, addend: 0x0, symName: __ZNSt3__128__copy_backward_trivial_implB8ue170006IP7Vector2S2_EENS_4pairIPT_PT0_EES5_S5_S7_, symObjAddr: 0x41C0, symBinAddr: 0x1000059E8, symSize: 0x90 }
  - { offsetInCU: 0x43B6, offset: 0x43B6, size: 0x8, addend: 0x0, symName: __ZNSt3__19make_pairB8ue170006IRPP7Vector2S4_EENS_4pairINS_18__unwrap_ref_decayIT_E4typeENS6_IT0_E4typeEEEOS7_OSA_, symObjAddr: 0x4250, symBinAddr: 0x100005A78, symSize: 0x38 }
  - { offsetInCU: 0x4405, offset: 0x4405, size: 0x8, addend: 0x0, symName: __ZNSt3__13maxB8ue170006ImNS_6__lessIvvEEEERKT_S5_S5_T0_, symObjAddr: 0x42F8, symBinAddr: 0x100005B20, symSize: 0x54 }
  - { offsetInCU: 0x445F, offset: 0x445F, size: 0x8, addend: 0x0, symName: __ZNSt3__119__allocate_at_leastB8ue170006INS_9allocatorIP7Vector2EEEENS_19__allocation_resultINS_16allocator_traitsIT_E7pointerEEERS7_m, symObjAddr: 0x445C, symBinAddr: 0x100005C84, symSize: 0x40 }
  - { offsetInCU: 0x44A2, offset: 0x44A2, size: 0x8, addend: 0x0, symName: __ZNSt3__119__libcpp_deallocateB8ue170006EPvmm, symObjAddr: 0x45D4, symBinAddr: 0x100005DFC, symSize: 0x30 }
  - { offsetInCU: 0x44EA, offset: 0x44EA, size: 0x8, addend: 0x0, symName: __ZNSt3__127__do_deallocate_handle_sizeB8ue170006IJEEEvPvmDpT_, symObjAddr: 0x4604, symBinAddr: 0x100005E2C, symSize: 0x28 }
  - { offsetInCU: 0x4528, offset: 0x4528, size: 0x8, addend: 0x0, symName: __ZNSt3__124__libcpp_operator_deleteB8ue170006IJPvEEEvDpT_, symObjAddr: 0x462C, symBinAddr: 0x100005E54, symSize: 0x24 }
  - { offsetInCU: 0x455D, offset: 0x455D, size: 0x8, addend: 0x0, symName: __ZNSt3__1eqB8ue170006ERKNS_5dequeI7Vector2NS_9allocatorIS1_EEE13__deque_rangeES7_, symObjAddr: 0x4AF8, symBinAddr: 0x100006320, symSize: 0x30 }
  - { offsetInCU: 0x459A, offset: 0x459A, size: 0x8, addend: 0x0, symName: __ZNSt3__1eqB8ue170006ERKNS_16__deque_iteratorI7Vector2PS1_RS1_PS2_lLl512EEES7_, symObjAddr: 0x4B28, symBinAddr: 0x100006350, symSize: 0x30 }
  - { offsetInCU: 0x45D7, offset: 0x45D7, size: 0x8, addend: 0x0, symName: __ZNSt3__110__distanceB8ue170006INS_16__deque_iteratorI7Vector2PKS2_RS3_PKS4_lLl512EEEEENS_15iterator_traitsIT_E15difference_typeESA_SA_NS_26random_access_iterator_tagE, symObjAddr: 0x4CEC, symBinAddr: 0x100006514, symSize: 0x38 }
  - { offsetInCU: 0x4624, offset: 0x4624, size: 0x8, addend: 0x0, symName: __ZNSt3__1miB8ue170006ERKNS_16__deque_iteratorI7Vector2PKS1_RS2_PKS3_lLl512EEES9_, symObjAddr: 0x4D24, symBinAddr: 0x10000654C, symSize: 0xA4 }
  - { offsetInCU: 0x4661, offset: 0x4661, size: 0x8, addend: 0x0, symName: __ZNSt3__1neB8ue170006ERKNS_16__deque_iteratorI7Vector2PKS1_RS2_PKS3_lLl512EEES9_, symObjAddr: 0x4DC8, symBinAddr: 0x1000065F0, symSize: 0x34 }
  - { offsetInCU: 0x469E, offset: 0x469E, size: 0x8, addend: 0x0, symName: __ZNSt3__1eqB8ue170006ERKNS_16__deque_iteratorI7Vector2PKS1_RS2_PKS3_lLl512EEES9_, symObjAddr: 0x4DFC, symBinAddr: 0x100006624, symSize: 0x30 }
  - { offsetInCU: 0x46DB, offset: 0x46DB, size: 0x8, addend: 0x0, symName: __ZNSt3__1neB8ue170006ERKNS_16__deque_iteratorI7Vector2PS1_RS1_PS2_lLl512EEES7_, symObjAddr: 0x52AC, symBinAddr: 0x100006AD4, symSize: 0x34 }
  - { offsetInCU: 0x48E5, offset: 0x48E5, size: 0x8, addend: 0x0, symName: __ZSt28__throw_bad_array_new_lengthB8ue170006v, symObjAddr: 0x3F68, symBinAddr: 0x100005790, symSize: 0x34 }
  - { offsetInCU: 0x6FA4, offset: 0x6FA4, size: 0x8, addend: 0x0, symName: __ZN4FoodC2ENSt3__15dequeI7Vector2NS0_9allocatorIS2_EEEE, symObjAddr: 0x0, symBinAddr: 0x100001828, symSize: 0x10C }
  - { offsetInCU: 0x6FF1, offset: 0x6FF1, size: 0x8, addend: 0x0, symName: __ZN4Food17GenerateRandomPosENSt3__15dequeI7Vector2NS0_9allocatorIS2_EEEE, symObjAddr: 0x10C, symBinAddr: 0x100001934, symSize: 0xC4 }
  - { offsetInCU: 0x7034, offset: 0x7034, size: 0x8, addend: 0x0, symName: __ZNSt3__15dequeI7Vector2NS_9allocatorIS1_EEEC1ERKS4_, symObjAddr: 0x1D0, symBinAddr: 0x1000019F8, symSize: 0x34 }
  - { offsetInCU: 0x706D, offset: 0x706D, size: 0x8, addend: 0x0, symName: __ZNSt3__15dequeI7Vector2NS_9allocatorIS1_EEED1B8ue170006Ev, symObjAddr: 0x204, symBinAddr: 0x100001A2C, symSize: 0x2C }
  - { offsetInCU: 0x7095, offset: 0x7095, size: 0x8, addend: 0x0, symName: __ZN4FoodC1ENSt3__15dequeI7Vector2NS0_9allocatorIS2_EEEE, symObjAddr: 0x230, symBinAddr: 0x100001A58, symSize: 0x34 }
  - { offsetInCU: 0x70CE, offset: 0x70CE, size: 0x8, addend: 0x0, symName: __ZN4FoodD2Ev, symObjAddr: 0x264, symBinAddr: 0x100001A8C, symSize: 0x48 }
  - { offsetInCU: 0x70F8, offset: 0x70F8, size: 0x8, addend: 0x0, symName: __ZN4FoodD1Ev, symObjAddr: 0x2B8, symBinAddr: 0x100001AE0, symSize: 0x2C }
  - { offsetInCU: 0x7122, offset: 0x7122, size: 0x8, addend: 0x0, symName: __ZN4Food4DrawEv, symObjAddr: 0x2E4, symBinAddr: 0x100001B0C, symSize: 0xA4 }
  - { offsetInCU: 0x7156, offset: 0x7156, size: 0x8, addend: 0x0, symName: __ZN4Food18GenerateRandomCellEv, symObjAddr: 0x388, symBinAddr: 0x100001BB0, symSize: 0x7C }
  - { offsetInCU: 0x7198, offset: 0x7198, size: 0x8, addend: 0x0, symName: __ZNSt3__15dequeI7Vector2NS_9allocatorIS1_EEEC2ERKS4_, symObjAddr: 0x404, symBinAddr: 0x100001C2C, symSize: 0xF8 }
  - { offsetInCU: 0x71DB, offset: 0x71DB, size: 0x8, addend: 0x0, symName: __ZNSt3__116allocator_traitsINS_9allocatorI7Vector2EEE37select_on_container_copy_constructionB8ue170006IS3_vvEES3_RKS3_, symObjAddr: 0x4FC, symBinAddr: 0x100001D24, symSize: 0x10 }
  - { offsetInCU: 0x7209, offset: 0x7209, size: 0x8, addend: 0x0, symName: __ZNKSt3__15dequeI7Vector2NS_9allocatorIS1_EEE7__allocB8ue170006Ev, symObjAddr: 0x50C, symBinAddr: 0x100001D34, symSize: 0x28 }
  - { offsetInCU: 0x722D, offset: 0x722D, size: 0x8, addend: 0x0, symName: __ZNSt3__19allocatorIP7Vector2EC1B8ue170006IS1_EERKNS0_IT_EE, symObjAddr: 0x534, symBinAddr: 0x100001D5C, symSize: 0x34 }
  - { offsetInCU: 0x7268, offset: 0x7268, size: 0x8, addend: 0x0, symName: __ZNSt3__114__split_bufferIP7Vector2NS_9allocatorIS2_EEEC1B8ue170006ERKS4_, symObjAddr: 0x568, symBinAddr: 0x100001D90, symSize: 0x34 }
  - { offsetInCU: 0x729E, offset: 0x729E, size: 0x8, addend: 0x0, symName: __ZNSt3__114__split_bufferIP7Vector2NS_9allocatorIS2_EEE7__allocB8ue170006Ev, symObjAddr: 0x59C, symBinAddr: 0x100001DC4, symSize: 0x28 }
  - { offsetInCU: 0x72C7, offset: 0x72C7, size: 0x8, addend: 0x0, symName: __ZNSt3__117__compressed_pairImNS_9allocatorI7Vector2EEEC1B8ue170006IiRNS1_IPS2_EEEEOT_OT0_, symObjAddr: 0x5C4, symBinAddr: 0x100001DEC, symSize: 0x3C }
  - { offsetInCU: 0x731D, offset: 0x731D, size: 0x8, addend: 0x0, symName: __ZNKSt3__15dequeI7Vector2NS_9allocatorIS1_EEE14__annotate_newB8ue170006Em, symObjAddr: 0x600, symBinAddr: 0x100001E28, symSize: 0xC8 }
  - { offsetInCU: 0x7355, offset: 0x7355, size: 0x8, addend: 0x0, symName: __ZNSt3__15dequeI7Vector2NS_9allocatorIS1_EEE8__appendINS_16__deque_iteratorIS1_PKS1_RS7_PKS8_lLl512EEEEEvT_SD_PNS_9enable_ifIXsr31__has_forward_iterator_categoryISD_EE5valueEvE4typeE, symObjAddr: 0x6C8, symBinAddr: 0x100001EF0, symSize: 0x78 }
  - { offsetInCU: 0x73AD, offset: 0x73AD, size: 0x8, addend: 0x0, symName: __ZNKSt3__15dequeI7Vector2NS_9allocatorIS1_EEE5beginB8ue170006Ev, symObjAddr: 0x740, symBinAddr: 0x100001F68, symSize: 0xA8 }
  - { offsetInCU: 0x73E0, offset: 0x73E0, size: 0x8, addend: 0x0, symName: __ZNKSt3__15dequeI7Vector2NS_9allocatorIS1_EEE3endB8ue170006Ev, symObjAddr: 0x7E8, symBinAddr: 0x100002010, symSize: 0xBC }
  - { offsetInCU: 0x7422, offset: 0x7422, size: 0x8, addend: 0x0, symName: __ZNSt3__114__split_bufferIP7Vector2NS_9allocatorIS2_EEED1Ev, symObjAddr: 0x8A4, symBinAddr: 0x1000020CC, symSize: 0x2C }
  - { offsetInCU: 0x744C, offset: 0x744C, size: 0x8, addend: 0x0, symName: __ZNKSt3__117__compressed_pairImNS_9allocatorI7Vector2EEE6secondB8ue170006Ev, symObjAddr: 0x8D0, symBinAddr: 0x1000020F8, symSize: 0x24 }
  - { offsetInCU: 0x7470, offset: 0x7470, size: 0x8, addend: 0x0, symName: __ZNKSt3__122__compressed_pair_elemINS_9allocatorI7Vector2EELi1ELb1EE5__getB8ue170006Ev, symObjAddr: 0x8F4, symBinAddr: 0x10000211C, symSize: 0x14 }
  - { offsetInCU: 0x7494, offset: 0x7494, size: 0x8, addend: 0x0, symName: __ZNSt3__19allocatorIP7Vector2EC2B8ue170006IS1_EERKNS0_IT_EE, symObjAddr: 0x908, symBinAddr: 0x100002130, symSize: 0x30 }
  - { offsetInCU: 0x74CF, offset: 0x74CF, size: 0x8, addend: 0x0, symName: __ZNSt3__116__non_trivial_ifILb1ENS_9allocatorIP7Vector2EEEC2B8ue170006Ev, symObjAddr: 0x938, symBinAddr: 0x100002160, symSize: 0x14 }
  - { offsetInCU: 0x74F7, offset: 0x74F7, size: 0x8, addend: 0x0, symName: __ZNSt3__114__split_bufferIP7Vector2NS_9allocatorIS2_EEEC2B8ue170006ERKS4_, symObjAddr: 0x94C, symBinAddr: 0x100002174, symSize: 0x4C }
  - { offsetInCU: 0x7532, offset: 0x7532, size: 0x8, addend: 0x0, symName: __ZNSt3__117__compressed_pairIPP7Vector2NS_9allocatorIS2_EEEC1B8ue170006IDnRKS5_EEOT_OT0_, symObjAddr: 0x998, symBinAddr: 0x1000021C0, symSize: 0x3C }
  - { offsetInCU: 0x7588, offset: 0x7588, size: 0x8, addend: 0x0, symName: __ZNSt3__117__compressed_pairIPP7Vector2NS_9allocatorIS2_EEEC2B8ue170006IDnRKS5_EEOT_OT0_, symObjAddr: 0x9D4, symBinAddr: 0x1000021FC, symSize: 0x44 }
  - { offsetInCU: 0x75DE, offset: 0x75DE, size: 0x8, addend: 0x0, symName: __ZNSt3__122__compressed_pair_elemIPP7Vector2Li0ELb0EEC2B8ue170006IDnvEEOT_, symObjAddr: 0xA18, symBinAddr: 0x100002240, symSize: 0x1C }
  - { offsetInCU: 0x761E, offset: 0x761E, size: 0x8, addend: 0x0, symName: __ZNSt3__122__compressed_pair_elemINS_9allocatorIP7Vector2EELi1ELb1EEC2B8ue170006IRKS4_vEEOT_, symObjAddr: 0xA34, symBinAddr: 0x10000225C, symSize: 0x18 }
  - { offsetInCU: 0x765E, offset: 0x765E, size: 0x8, addend: 0x0, symName: __ZNSt3__117__compressed_pairIPP7Vector2NS_9allocatorIS2_EEE6secondB8ue170006Ev, symObjAddr: 0xA4C, symBinAddr: 0x100002274, symSize: 0x24 }
  - { offsetInCU: 0x7682, offset: 0x7682, size: 0x8, addend: 0x0, symName: __ZNSt3__122__compressed_pair_elemINS_9allocatorIP7Vector2EELi1ELb1EE5__getB8ue170006Ev, symObjAddr: 0xA70, symBinAddr: 0x100002298, symSize: 0x14 }
  - { offsetInCU: 0x76A6, offset: 0x76A6, size: 0x8, addend: 0x0, symName: __ZNSt3__117__compressed_pairImNS_9allocatorI7Vector2EEEC2B8ue170006IiRNS1_IPS2_EEEEOT_OT0_, symObjAddr: 0xA84, symBinAddr: 0x1000022AC, symSize: 0x44 }
  - { offsetInCU: 0x76FC, offset: 0x76FC, size: 0x8, addend: 0x0, symName: __ZNSt3__122__compressed_pair_elemImLi0ELb0EEC2B8ue170006IivEEOT_, symObjAddr: 0xAC8, symBinAddr: 0x1000022F0, symSize: 0x24 }
  - { offsetInCU: 0x773C, offset: 0x773C, size: 0x8, addend: 0x0, symName: __ZNSt3__122__compressed_pair_elemINS_9allocatorI7Vector2EELi1ELb1EEC2B8ue170006IRNS1_IPS2_EEvEEOT_, symObjAddr: 0xAEC, symBinAddr: 0x100002314, symSize: 0x34 }
  - { offsetInCU: 0x777C, offset: 0x777C, size: 0x8, addend: 0x0, symName: __ZNSt3__19allocatorI7Vector2EC2B8ue170006IPS1_EERKNS0_IT_EE, symObjAddr: 0xB20, symBinAddr: 0x100002348, symSize: 0x30 }
  - { offsetInCU: 0x77B7, offset: 0x77B7, size: 0x8, addend: 0x0, symName: __ZNSt3__116__non_trivial_ifILb1ENS_9allocatorI7Vector2EEEC2B8ue170006Ev, symObjAddr: 0xB50, symBinAddr: 0x100002378, symSize: 0x14 }
  - { offsetInCU: 0x77DF, offset: 0x77DF, size: 0x8, addend: 0x0, symName: __ZNKSt3__15dequeI7Vector2NS_9allocatorIS1_EEE18__annotate_from_toB8ue170006EmmNS4_22__asan_annotation_typeENS4_23__asan_annotation_placeE, symObjAddr: 0xB64, symBinAddr: 0x10000238C, symSize: 0x580 }
  - { offsetInCU: 0x7999, offset: 0x7999, size: 0x8, addend: 0x0, symName: __ZNKSt3__114__split_bufferIP7Vector2NS_9allocatorIS2_EEE4sizeB8ue170006Ev, symObjAddr: 0x10E4, symBinAddr: 0x10000290C, symSize: 0x28 }
  - { offsetInCU: 0x79BD, offset: 0x79BD, size: 0x8, addend: 0x0, symName: __ZNKSt3__114__split_bufferIP7Vector2NS_9allocatorIS2_EEE5beginB8ue170006Ev, symObjAddr: 0x110C, symBinAddr: 0x100002934, symSize: 0x18 }
  - { offsetInCU: 0x79E1, offset: 0x79E1, size: 0x8, addend: 0x0, symName: __ZNKSt3__15dequeI7Vector2NS_9allocatorIS1_EEE4sizeB8ue170006Ev, symObjAddr: 0x1124, symBinAddr: 0x10000294C, symSize: 0x28 }
  - { offsetInCU: 0x7A05, offset: 0x7A05, size: 0x8, addend: 0x0, symName: __ZNKSt3__15dequeI7Vector2NS_9allocatorIS1_EEE5emptyB8ue170006Ev, symObjAddr: 0x114C, symBinAddr: 0x100002974, symSize: 0x30 }
  - { offsetInCU: 0x7A29, offset: 0x7A29, size: 0x8, addend: 0x0, symName: __ZNKSt3__15dequeI7Vector2NS_9allocatorIS1_EEE44__annotate_double_ended_contiguous_containerB8ue170006EPKvS6_S6_S6_S6_S6_, symObjAddr: 0x1190, symBinAddr: 0x1000029B8, symSize: 0x28 }
  - { offsetInCU: 0x7A8F, offset: 0x7A8F, size: 0x8, addend: 0x0, symName: __ZNKSt3__15dequeI7Vector2NS_9allocatorIS1_EEE6__sizeB8ue170006Ev, symObjAddr: 0x11B8, symBinAddr: 0x1000029E0, symSize: 0x28 }
  - { offsetInCU: 0x7AB3, offset: 0x7AB3, size: 0x8, addend: 0x0, symName: __ZNKSt3__117__compressed_pairImNS_9allocatorI7Vector2EEE5firstB8ue170006Ev, symObjAddr: 0x11E0, symBinAddr: 0x100002A08, symSize: 0x24 }
  - { offsetInCU: 0x7AD7, offset: 0x7AD7, size: 0x8, addend: 0x0, symName: __ZNKSt3__122__compressed_pair_elemImLi0ELb0EE5__getB8ue170006Ev, symObjAddr: 0x1204, symBinAddr: 0x100002A2C, symSize: 0x14 }
  - { offsetInCU: 0x7AFB, offset: 0x7AFB, size: 0x8, addend: 0x0, symName: __ZNSt3__15dequeI7Vector2NS_9allocatorIS1_EEE18__append_with_sizeB8ue170006INS_16__deque_iteratorIS1_PKS1_RS7_PKS8_lLl512EEEEEvT_m, symObjAddr: 0x1218, symBinAddr: 0x100002A40, symSize: 0x21C }
  - { offsetInCU: 0x7BC7, offset: 0x7BC7, size: 0x8, addend: 0x0, symName: __ZNSt3__15dequeI7Vector2NS_9allocatorIS1_EEE7__allocB8ue170006Ev, symObjAddr: 0x1480, symBinAddr: 0x100002CA8, symSize: 0x28 }
  - { offsetInCU: 0x7BEB, offset: 0x7BEB, size: 0x8, addend: 0x0, symName: __ZNKSt3__15dequeI7Vector2NS_9allocatorIS1_EEE12__back_spareB8ue170006Ev, symObjAddr: 0x14A8, symBinAddr: 0x100002CD0, symSize: 0x54 }
  - { offsetInCU: 0x7C0F, offset: 0x7C0F, size: 0x8, addend: 0x0, symName: __ZNSt3__15dequeI7Vector2NS_9allocatorIS1_EEE19__add_back_capacityEm, symObjAddr: 0x14FC, symBinAddr: 0x100002D24, symSize: 0x644 }
  - { offsetInCU: 0x7D0E, offset: 0x7D0E, size: 0x8, addend: 0x0, symName: __ZNKSt3__15dequeI7Vector2NS_9allocatorIS1_EEE24__annotate_increase_backB8ue170006Em, symObjAddr: 0x1B40, symBinAddr: 0x100003368, symSize: 0x7C }
  - { offsetInCU: 0x7D41, offset: 0x7D41, size: 0x8, addend: 0x0, symName: __ZNSt3__15dequeI7Vector2NS_9allocatorIS1_EEE3endB8ue170006Ev, symObjAddr: 0x1BBC, symBinAddr: 0x1000033E4, symSize: 0xBC }
  - { offsetInCU: 0x7D83, offset: 0x7D83, size: 0x8, addend: 0x0, symName: __ZNKSt3__116__deque_iteratorI7Vector2PS1_RS1_PS2_lLl512EEplB8ue170006El, symObjAddr: 0x1C78, symBinAddr: 0x1000034A0, symSize: 0x40 }
  - { offsetInCU: 0x7DE8, offset: 0x7DE8, size: 0x8, addend: 0x0, symName: __ZNSt3__15dequeI7Vector2NS_9allocatorIS1_EEE13__deque_rangeC1B8ue170006ENS_16__deque_iteratorIS1_PS1_RS1_PS7_lLl512EEESA_, symObjAddr: 0x1CB8, symBinAddr: 0x1000034E0, symSize: 0x4C }
  - { offsetInCU: 0x7E2E, offset: 0x7E2E, size: 0x8, addend: 0x0, symName: __ZNKSt3__15dequeI7Vector2NS_9allocatorIS1_EEE13__deque_range5beginB8ue170006Ev, symObjAddr: 0x1D04, symBinAddr: 0x10000352C, symSize: 0x24 }
  - { offsetInCU: 0x7E52, offset: 0x7E52, size: 0x8, addend: 0x0, symName: __ZNKSt3__15dequeI7Vector2NS_9allocatorIS1_EEE13__deque_range3endB8ue170006Ev, symObjAddr: 0x1D28, symBinAddr: 0x100003550, symSize: 0x50 }
  - { offsetInCU: 0x7E76, offset: 0x7E76, size: 0x8, addend: 0x0, symName: __ZNKSt3__15dequeI7Vector2NS_9allocatorIS1_EEE13__deque_rangedeB8ue170006Ev, symObjAddr: 0x1DAC, symBinAddr: 0x1000035D4, symSize: 0x7C }
  - { offsetInCU: 0x7EAE, offset: 0x7EAE, size: 0x8, addend: 0x0, symName: __ZNSt3__15dequeI7Vector2NS_9allocatorIS1_EEE21_ConstructTransactionC1B8ue170006EPS4_RNS4_19__deque_block_rangeE, symObjAddr: 0x1E28, symBinAddr: 0x100003650, symSize: 0x3C }
  - { offsetInCU: 0x7EF4, offset: 0x7EF4, size: 0x8, addend: 0x0, symName: __ZNSt3__116allocator_traitsINS_9allocatorI7Vector2EEE9constructB8ue170006IS2_JRKS2_EvEEvRS3_PT_DpOT0_, symObjAddr: 0x1E64, symBinAddr: 0x10000368C, symSize: 0x34 }
  - { offsetInCU: 0x7F4A, offset: 0x7F4A, size: 0x8, addend: 0x0, symName: __ZNKSt3__116__deque_iteratorI7Vector2PKS1_RS2_PKS3_lLl512EEdeB8ue170006Ev, symObjAddr: 0x1E98, symBinAddr: 0x1000036C0, symSize: 0x18 }
  - { offsetInCU: 0x7F6E, offset: 0x7F6E, size: 0x8, addend: 0x0, symName: __ZNSt3__116__deque_iteratorI7Vector2PKS1_RS2_PKS3_lLl512EEppB8ue170006Ev, symObjAddr: 0x1EB0, symBinAddr: 0x1000036D8, symSize: 0x70 }
  - { offsetInCU: 0x7F92, offset: 0x7F92, size: 0x8, addend: 0x0, symName: __ZNSt3__15dequeI7Vector2NS_9allocatorIS1_EEE21_ConstructTransactionD1B8ue170006Ev, symObjAddr: 0x1F20, symBinAddr: 0x100003748, symSize: 0x2C }
  - { offsetInCU: 0x7FBA, offset: 0x7FBA, size: 0x8, addend: 0x0, symName: __ZNSt3__15dequeI7Vector2NS_9allocatorIS1_EEE13__deque_rangeppB8ue170006Ev, symObjAddr: 0x1F4C, symBinAddr: 0x100003774, symSize: 0x64 }
  - { offsetInCU: 0x7FDE, offset: 0x7FDE, size: 0x8, addend: 0x0, symName: __ZNSt3__117__compressed_pairImNS_9allocatorI7Vector2EEE6secondB8ue170006Ev, symObjAddr: 0x1FB0, symBinAddr: 0x1000037D8, symSize: 0x24 }
  - { offsetInCU: 0x8002, offset: 0x8002, size: 0x8, addend: 0x0, symName: __ZNSt3__122__compressed_pair_elemINS_9allocatorI7Vector2EELi1ELb1EE5__getB8ue170006Ev, symObjAddr: 0x1FD4, symBinAddr: 0x1000037FC, symSize: 0x14 }
  - { offsetInCU: 0x8026, offset: 0x8026, size: 0x8, addend: 0x0, symName: __ZNKSt3__15dequeI7Vector2NS_9allocatorIS1_EEE10__capacityB8ue170006Ev, symObjAddr: 0x1FE8, symBinAddr: 0x100003810, symSize: 0x60 }
  - { offsetInCU: 0x804A, offset: 0x804A, size: 0x8, addend: 0x0, symName: __ZNSt3__15dequeI7Vector2NS_9allocatorIS1_EEE18__recommend_blocksB8ue170006Em, symObjAddr: 0x2048, symBinAddr: 0x100003870, symSize: 0x40 }
  - { offsetInCU: 0x806D, offset: 0x806D, size: 0x8, addend: 0x0, symName: __ZNKSt3__114__split_bufferIP7Vector2NS_9allocatorIS2_EEE5emptyB8ue170006Ev, symObjAddr: 0x2088, symBinAddr: 0x1000038B0, symSize: 0x28 }
  - { offsetInCU: 0x8091, offset: 0x8091, size: 0x8, addend: 0x0, symName: __ZNKSt3__15dequeI7Vector2NS_9allocatorIS1_EEE13__front_spareB8ue170006Ev, symObjAddr: 0x20B0, symBinAddr: 0x1000038D8, symSize: 0x18 }
  - { offsetInCU: 0x80B5, offset: 0x80B5, size: 0x8, addend: 0x0, symName: __ZNSt3__114__split_bufferIP7Vector2NS_9allocatorIS2_EEE5frontB8ue170006Ev, symObjAddr: 0x20F4, symBinAddr: 0x10000391C, symSize: 0x18 }
  - { offsetInCU: 0x80D9, offset: 0x80D9, size: 0x8, addend: 0x0, symName: __ZNSt3__114__split_bufferIP7Vector2NS_9allocatorIS2_EEE9pop_frontB8ue170006Ev, symObjAddr: 0x210C, symBinAddr: 0x100003934, symSize: 0x2C }
  - { offsetInCU: 0x80FD, offset: 0x80FD, size: 0x8, addend: 0x0, symName: __ZNSt3__114__split_bufferIP7Vector2NS_9allocatorIS2_EEE9push_backB8ue170006ERKS2_, symObjAddr: 0x2138, symBinAddr: 0x100003960, symSize: 0x260 }
  - { offsetInCU: 0x8173, offset: 0x8173, size: 0x8, addend: 0x0, symName: __ZNKSt3__114__split_bufferIP7Vector2NS_9allocatorIS2_EEE8capacityB8ue170006Ev, symObjAddr: 0x2398, symBinAddr: 0x100003BC0, symSize: 0x40 }
  - { offsetInCU: 0x8197, offset: 0x8197, size: 0x8, addend: 0x0, symName: __ZNKSt3__114__split_bufferIP7Vector2NS_9allocatorIS2_EEE12__back_spareB8ue170006Ev, symObjAddr: 0x23D8, symBinAddr: 0x100003C00, symSize: 0x40 }
  - { offsetInCU: 0x81BB, offset: 0x81BB, size: 0x8, addend: 0x0, symName: __ZNSt3__114__split_bufferIP7Vector2NS_9allocatorIS2_EEE9push_backEOS2_, symObjAddr: 0x2418, symBinAddr: 0x100003C40, symSize: 0x260 }
  - { offsetInCU: 0x8231, offset: 0x8231, size: 0x8, addend: 0x0, symName: __ZNSt3__116allocator_traitsINS_9allocatorI7Vector2EEE8allocateB8ue170006ERS3_m, symObjAddr: 0x2678, symBinAddr: 0x100003EA0, symSize: 0x2C }
  - { offsetInCU: 0x8263, offset: 0x8263, size: 0x8, addend: 0x0, symName: __ZNKSt3__15dequeI7Vector2NS_9allocatorIS1_EEE22__annotate_whole_blockB8ue170006EmNS4_22__asan_annotation_typeE, symObjAddr: 0x26A4, symBinAddr: 0x100003ECC, symSize: 0xAC }
  - { offsetInCU: 0x82D2, offset: 0x82D2, size: 0x8, addend: 0x0, symName: __ZNSt3__114__split_bufferIP7Vector2NS_9allocatorIS2_EEE10push_frontEOS2_, symObjAddr: 0x2750, symBinAddr: 0x100003F78, symSize: 0x25C }
  - { offsetInCU: 0x8348, offset: 0x8348, size: 0x8, addend: 0x0, symName: __ZNSt3__114__split_bufferIP7Vector2RNS_9allocatorIS2_EEEC1EmmS5_, symObjAddr: 0x29D8, symBinAddr: 0x100004200, symSize: 0x44 }
  - { offsetInCU: 0x839C, offset: 0x839C, size: 0x8, addend: 0x0, symName: __ZNSt3__114__split_bufferIP7Vector2RNS_9allocatorIS2_EEE9push_backEOS2_, symObjAddr: 0x2A1C, symBinAddr: 0x100004244, symSize: 0x260 }
  - { offsetInCU: 0x8412, offset: 0x8412, size: 0x8, addend: 0x0, symName: __ZNKSt3__15dequeI7Vector2NS_9allocatorIS1_EEE23__annotate_poison_blockB8ue170006EPKvS6_, symObjAddr: 0x2C7C, symBinAddr: 0x1000044A4, symSize: 0x44 }
  - { offsetInCU: 0x8454, offset: 0x8454, size: 0x8, addend: 0x0, symName: __ZNSt3__114__split_bufferIP7Vector2RNS_9allocatorIS2_EEE4backB8ue170006Ev, symObjAddr: 0x2CC0, symBinAddr: 0x1000044E8, symSize: 0x1C }
  - { offsetInCU: 0x8478, offset: 0x8478, size: 0x8, addend: 0x0, symName: __ZNKSt3__15dequeI7Vector2NS_9allocatorIS1_EEE17__annotate_deleteB8ue170006Ev, symObjAddr: 0x2CDC, symBinAddr: 0x100004504, symSize: 0xE8 }
  - { offsetInCU: 0x84B9, offset: 0x84B9, size: 0x8, addend: 0x0, symName: __ZNSt3__114__split_bufferIP7Vector2RNS_9allocatorIS2_EEE5beginB8ue170006Ev, symObjAddr: 0x2DC4, symBinAddr: 0x1000045EC, symSize: 0x18 }
  - { offsetInCU: 0x84DD, offset: 0x84DD, size: 0x8, addend: 0x0, symName: __ZNSt3__114__split_bufferIP7Vector2RNS_9allocatorIS2_EEE3endB8ue170006Ev, symObjAddr: 0x2DDC, symBinAddr: 0x100004604, symSize: 0x18 }
  - { offsetInCU: 0x8501, offset: 0x8501, size: 0x8, addend: 0x0, symName: __ZNSt3__116allocator_traitsINS_9allocatorI7Vector2EEE10deallocateB8ue170006ERS3_PS2_m, symObjAddr: 0x2DF4, symBinAddr: 0x10000461C, symSize: 0x34 }
  - { offsetInCU: 0x8542, offset: 0x8542, size: 0x8, addend: 0x0, symName: __ZNSt3__114__split_bufferIP7Vector2RNS_9allocatorIS2_EEE9push_backB8ue170006ERKS2_, symObjAddr: 0x2E28, symBinAddr: 0x100004650, symSize: 0x260 }
  - { offsetInCU: 0x85B8, offset: 0x85B8, size: 0x8, addend: 0x0, symName: __ZNSt3__114__split_bufferIP7Vector2NS_9allocatorIS2_EEE3endB8ue170006Ev, symObjAddr: 0x3088, symBinAddr: 0x1000048B0, symSize: 0x18 }
  - { offsetInCU: 0x85DC, offset: 0x85DC, size: 0x8, addend: 0x0, symName: __ZNSt3__114__split_bufferIP7Vector2NS_9allocatorIS2_EEE5beginB8ue170006Ev, symObjAddr: 0x30A0, symBinAddr: 0x1000048C8, symSize: 0x18 }
  - { offsetInCU: 0x8600, offset: 0x8600, size: 0x8, addend: 0x0, symName: __ZNSt3__114__split_bufferIP7Vector2RNS_9allocatorIS2_EEE10push_frontERKS2_, symObjAddr: 0x30B8, symBinAddr: 0x1000048E0, symSize: 0x25C }
  - { offsetInCU: 0x8676, offset: 0x8676, size: 0x8, addend: 0x0, symName: __ZNSt3__114__split_bufferIP7Vector2NS_9allocatorIS2_EEE9__end_capB8ue170006Ev, symObjAddr: 0x3350, symBinAddr: 0x100004B78, symSize: 0x28 }
  - { offsetInCU: 0x869A, offset: 0x869A, size: 0x8, addend: 0x0, symName: __ZNSt3__114__split_bufferIP7Vector2RNS_9allocatorIS2_EEE9__end_capB8ue170006Ev, symObjAddr: 0x3378, symBinAddr: 0x100004BA0, symSize: 0x28 }
  - { offsetInCU: 0x86BE, offset: 0x86BE, size: 0x8, addend: 0x0, symName: __ZNSt3__114__split_bufferIP7Vector2RNS_9allocatorIS2_EEED1Ev, symObjAddr: 0x33A0, symBinAddr: 0x100004BC8, symSize: 0x2C }
  - { offsetInCU: 0x86F2, offset: 0x86F2, size: 0x8, addend: 0x0, symName: __ZNKSt3__16__lessIvvEclB8ue170006ImmEEbRKT_RKT0_, symObjAddr: 0x3420, symBinAddr: 0x100004C48, symSize: 0x34 }
  - { offsetInCU: 0x8744, offset: 0x8744, size: 0x8, addend: 0x0, symName: __ZNSt3__114__split_bufferIP7Vector2NS_9allocatorIS2_EEE19__destruct_at_beginB8ue170006EPS2_, symObjAddr: 0x3454, symBinAddr: 0x100004C7C, symSize: 0x2C }
  - { offsetInCU: 0x8776, offset: 0x8776, size: 0x8, addend: 0x0, symName: __ZNSt3__114__split_bufferIP7Vector2NS_9allocatorIS2_EEE19__destruct_at_beginEPS2_NS_17integral_constantIbLb1EEE, symObjAddr: 0x3480, symBinAddr: 0x100004CA8, symSize: 0x20 }
  - { offsetInCU: 0x87B4, offset: 0x87B4, size: 0x8, addend: 0x0, symName: __ZNSt3__114__split_bufferIP7Vector2RNS_9allocatorIS2_EEE18__construct_at_endINS_13move_iteratorIPS2_EEEENS_9enable_ifIXsr31__has_forward_iterator_categoryIT_EE5valueEvE4typeESC_SC_, symObjAddr: 0x34E0, symBinAddr: 0x100004D08, symSize: 0x60 }
  - { offsetInCU: 0x87FF, offset: 0x87FF, size: 0x8, addend: 0x0, symName: __ZNSt3__113move_iteratorIPP7Vector2EC1B8ue170006ES3_, symObjAddr: 0x3540, symBinAddr: 0x100004D68, symSize: 0x34 }
  - { offsetInCU: 0x8835, offset: 0x8835, size: 0x8, addend: 0x0, symName: __ZNSt3__116allocator_traitsINS_9allocatorIP7Vector2EEE9constructB8ue170006IS3_JRKS3_EvEEvRS4_PT_DpOT0_, symObjAddr: 0x3574, symBinAddr: 0x100004D9C, symSize: 0x34 }
  - { offsetInCU: 0x88AE, offset: 0x88AE, size: 0x8, addend: 0x0, symName: __ZNKSt3__114__move_trivialclB8ue170006IP7Vector2S3_Li0EEENS_4pairIPT_PT0_EES6_S6_S8_, symObjAddr: 0x3758, symBinAddr: 0x100004F80, symSize: 0x48 }
  - { offsetInCU: 0x8919, offset: 0x8919, size: 0x8, addend: 0x0, symName: __ZNSt3__14pairIPP7Vector2S3_EC1B8ue170006IRS3_S3_LPv0EEEOT_OT0_, symObjAddr: 0x3980, symBinAddr: 0x1000051A8, symSize: 0x3C }
  - { offsetInCU: 0x8975, offset: 0x8975, size: 0x8, addend: 0x0, symName: __ZNSt3__14pairIPP7Vector2S3_EC2B8ue170006IRS3_S3_LPv0EEEOT_OT0_, symObjAddr: 0x39BC, symBinAddr: 0x1000051E4, symSize: 0x34 }
  - { offsetInCU: 0x89D1, offset: 0x89D1, size: 0x8, addend: 0x0, symName: __ZNSt3__118__unwrap_iter_implIPP7Vector2Lb1EE8__unwrapB8ue170006ES3_, symObjAddr: 0x39F0, symBinAddr: 0x100005218, symSize: 0x24 }
  - { offsetInCU: 0x89F3, offset: 0x89F3, size: 0x8, addend: 0x0, symName: __ZNSt3__14pairIPP7Vector2S3_EC1B8ue170006IS3_S3_LPv0EEEOT_OT0_, symObjAddr: 0x3A14, symBinAddr: 0x10000523C, symSize: 0x3C }
  - { offsetInCU: 0x8A4F, offset: 0x8A4F, size: 0x8, addend: 0x0, symName: __ZNSt3__14pairIPP7Vector2S3_EC2B8ue170006IS3_S3_LPv0EEEOT_OT0_, symObjAddr: 0x3A50, symBinAddr: 0x100005278, symSize: 0x34 }
  - { offsetInCU: 0x8AAB, offset: 0x8AAB, size: 0x8, addend: 0x0, symName: __ZNSt3__118__unwrap_iter_implIPP7Vector2Lb1EE8__rewrapB8ue170006ES3_S3_, symObjAddr: 0x3A84, symBinAddr: 0x1000052AC, symSize: 0x50 }
  - { offsetInCU: 0x8ADB, offset: 0x8ADB, size: 0x8, addend: 0x0, symName: __ZNSt3__114__split_bufferIP7Vector2RNS_9allocatorIS2_EEE28__construct_at_end_with_sizeINS_13move_iteratorIPS2_EEEEvT_m, symObjAddr: 0x3AD4, symBinAddr: 0x1000052FC, symSize: 0xDC }
  - { offsetInCU: 0x8B3F, offset: 0x8B3F, size: 0x8, addend: 0x0, symName: __ZNSt3__114__split_bufferIP7Vector2RNS_9allocatorIS2_EEE21_ConstructTransactionC1B8ue170006EPPS2_m, symObjAddr: 0x3BEC, symBinAddr: 0x100005414, symSize: 0x3C }
  - { offsetInCU: 0x8B83, offset: 0x8B83, size: 0x8, addend: 0x0, symName: __ZNSt3__116allocator_traitsINS_9allocatorIP7Vector2EEE9constructB8ue170006IS3_JS3_EvEEvRS4_PT_DpOT0_, symObjAddr: 0x3C28, symBinAddr: 0x100005450, symSize: 0x34 }
  - { offsetInCU: 0x8BD9, offset: 0x8BD9, size: 0x8, addend: 0x0, symName: __ZNSt3__114__split_bufferIP7Vector2RNS_9allocatorIS2_EEE7__allocB8ue170006Ev, symObjAddr: 0x3C5C, symBinAddr: 0x100005484, symSize: 0x28 }
  - { offsetInCU: 0x8BFD, offset: 0x8BFD, size: 0x8, addend: 0x0, symName: __ZNKSt3__113move_iteratorIPP7Vector2EdeB8ue170006Ev, symObjAddr: 0x3C84, symBinAddr: 0x1000054AC, symSize: 0x18 }
  - { offsetInCU: 0x8C21, offset: 0x8C21, size: 0x8, addend: 0x0, symName: __ZNSt3__113move_iteratorIPP7Vector2EppB8ue170006Ev, symObjAddr: 0x3C9C, symBinAddr: 0x1000054C4, symSize: 0x20 }
  - { offsetInCU: 0x8C45, offset: 0x8C45, size: 0x8, addend: 0x0, symName: __ZNSt3__114__split_bufferIP7Vector2RNS_9allocatorIS2_EEE21_ConstructTransactionD1B8ue170006Ev, symObjAddr: 0x3CBC, symBinAddr: 0x1000054E4, symSize: 0x2C }
  - { offsetInCU: 0x8C6D, offset: 0x8C6D, size: 0x8, addend: 0x0, symName: __ZNSt3__114__split_bufferIP7Vector2RNS_9allocatorIS2_EEE21_ConstructTransactionC2B8ue170006EPPS2_m, symObjAddr: 0x3CE8, symBinAddr: 0x100005510, symSize: 0x44 }
  - { offsetInCU: 0x8CB1, offset: 0x8CB1, size: 0x8, addend: 0x0, symName: __ZNSt3__19allocatorIP7Vector2E9constructB8ue170006IS2_JS2_EEEvPT_DpOT0_, symObjAddr: 0x3D2C, symBinAddr: 0x100005554, symSize: 0x28 }
  - { offsetInCU: 0x8D05, offset: 0x8D05, size: 0x8, addend: 0x0, symName: __ZNSt3__117__compressed_pairIPP7Vector2RNS_9allocatorIS2_EEE6secondB8ue170006Ev, symObjAddr: 0x3D54, symBinAddr: 0x10000557C, symSize: 0x28 }
  - { offsetInCU: 0x8D29, offset: 0x8D29, size: 0x8, addend: 0x0, symName: __ZNSt3__122__compressed_pair_elemIRNS_9allocatorIP7Vector2EELi1ELb0EE5__getB8ue170006Ev, symObjAddr: 0x3D7C, symBinAddr: 0x1000055A4, symSize: 0x18 }
  - { offsetInCU: 0x8D4D, offset: 0x8D4D, size: 0x8, addend: 0x0, symName: __ZNSt3__114__split_bufferIP7Vector2RNS_9allocatorIS2_EEE21_ConstructTransactionD2B8ue170006Ev, symObjAddr: 0x3D94, symBinAddr: 0x1000055BC, symSize: 0x20 }
  - { offsetInCU: 0x8D75, offset: 0x8D75, size: 0x8, addend: 0x0, symName: __ZNKSt3__113move_iteratorIPP7Vector2E4baseB8ue170006Ev, symObjAddr: 0x3E2C, symBinAddr: 0x100005654, symSize: 0x18 }
  - { offsetInCU: 0x8D99, offset: 0x8D99, size: 0x8, addend: 0x0, symName: __ZNSt3__113move_iteratorIPP7Vector2EC2B8ue170006ES3_, symObjAddr: 0x3E44, symBinAddr: 0x10000566C, symSize: 0x20 }
  - { offsetInCU: 0x8DCF, offset: 0x8DCF, size: 0x8, addend: 0x0, symName: __ZNSt3__19allocatorIP7Vector2E9constructB8ue170006IS2_JRKS2_EEEvPT_DpOT0_, symObjAddr: 0x3E64, symBinAddr: 0x10000568C, symSize: 0x28 }
  - { offsetInCU: 0x8E23, offset: 0x8E23, size: 0x8, addend: 0x0, symName: __ZNKSt3__114__split_bufferIP7Vector2NS_9allocatorIS2_EEE9__end_capB8ue170006Ev, symObjAddr: 0x3E8C, symBinAddr: 0x1000056B4, symSize: 0x28 }
  - { offsetInCU: 0x8E47, offset: 0x8E47, size: 0x8, addend: 0x0, symName: __ZNKSt3__117__compressed_pairIPP7Vector2NS_9allocatorIS2_EEE5firstB8ue170006Ev, symObjAddr: 0x3EB4, symBinAddr: 0x1000056DC, symSize: 0x24 }
  - { offsetInCU: 0x8E6B, offset: 0x8E6B, size: 0x8, addend: 0x0, symName: __ZNKSt3__122__compressed_pair_elemIPP7Vector2Li0ELb0EE5__getB8ue170006Ev, symObjAddr: 0x3ED8, symBinAddr: 0x100005700, symSize: 0x14 }
  - { offsetInCU: 0x8E8F, offset: 0x8E8F, size: 0x8, addend: 0x0, symName: __ZNSt3__19allocatorI7Vector2E8allocateB8ue170006Em, symObjAddr: 0x3EEC, symBinAddr: 0x100005714, symSize: 0x58 }
  - { offsetInCU: 0x8EC1, offset: 0x8EC1, size: 0x8, addend: 0x0, symName: __ZNSt3__116allocator_traitsINS_9allocatorI7Vector2EEE8max_sizeB8ue170006IS3_vEEmRKS3_, symObjAddr: 0x3F44, symBinAddr: 0x10000576C, symSize: 0x24 }
  - { offsetInCU: 0x8EEE, offset: 0x8EEE, size: 0x8, addend: 0x0, symName: __ZNKSt3__19allocatorI7Vector2E8max_sizeB8ue170006Ev, symObjAddr: 0x3FC4, symBinAddr: 0x1000057EC, symSize: 0x14 }
  - { offsetInCU: 0x8F1C, offset: 0x8F1C, size: 0x8, addend: 0x0, symName: __ZNKSt3__123__move_backward_trivialclB8ue170006IP7Vector2S3_Li0EEENS_4pairIPT_PT0_EES6_S6_S8_, symObjAddr: 0x4178, symBinAddr: 0x1000059A0, symSize: 0x48 }
  - { offsetInCU: 0x8F82, offset: 0x8F82, size: 0x8, addend: 0x0, symName: __ZNSt3__14pairIPP7Vector2S3_EC1B8ue170006IRS3_S6_LPv0EEEOT_OT0_, symObjAddr: 0x4288, symBinAddr: 0x100005AB0, symSize: 0x3C }
  - { offsetInCU: 0x8FDE, offset: 0x8FDE, size: 0x8, addend: 0x0, symName: __ZNSt3__14pairIPP7Vector2S3_EC2B8ue170006IRS3_S6_LPv0EEEOT_OT0_, symObjAddr: 0x42C4, symBinAddr: 0x100005AEC, symSize: 0x34 }
  - { offsetInCU: 0x903A, offset: 0x903A, size: 0x8, addend: 0x0, symName: __ZNSt3__114__split_bufferIP7Vector2RNS_9allocatorIS2_EEEC2EmmS5_, symObjAddr: 0x434C, symBinAddr: 0x100005B74, symSize: 0xD4 }
  - { offsetInCU: 0x90AB, offset: 0x90AB, size: 0x8, addend: 0x0, symName: __ZNSt3__117__compressed_pairIPP7Vector2RNS_9allocatorIS2_EEEC1B8ue170006IDnS6_EEOT_OT0_, symObjAddr: 0x4420, symBinAddr: 0x100005C48, symSize: 0x3C }
  - { offsetInCU: 0x9101, offset: 0x9101, size: 0x8, addend: 0x0, symName: __ZNSt3__117__compressed_pairIPP7Vector2RNS_9allocatorIS2_EEEC2B8ue170006IDnS6_EEOT_OT0_, symObjAddr: 0x449C, symBinAddr: 0x100005CC4, symSize: 0x48 }
  - { offsetInCU: 0x9157, offset: 0x9157, size: 0x8, addend: 0x0, symName: __ZNSt3__122__compressed_pair_elemIRNS_9allocatorIP7Vector2EELi1ELb0EEC2B8ue170006IS5_vEEOT_, symObjAddr: 0x44E4, symBinAddr: 0x100005D0C, symSize: 0x20 }
  - { offsetInCU: 0x9197, offset: 0x9197, size: 0x8, addend: 0x0, symName: __ZNSt3__19allocatorIP7Vector2E8allocateB8ue170006Em, symObjAddr: 0x4504, symBinAddr: 0x100005D2C, symSize: 0x58 }
  - { offsetInCU: 0x91D3, offset: 0x91D3, size: 0x8, addend: 0x0, symName: __ZNSt3__116allocator_traitsINS_9allocatorIP7Vector2EEE8max_sizeB8ue170006IS4_vEEmRKS4_, symObjAddr: 0x455C, symBinAddr: 0x100005D84, symSize: 0x24 }
  - { offsetInCU: 0x9200, offset: 0x9200, size: 0x8, addend: 0x0, symName: __ZNKSt3__19allocatorIP7Vector2E8max_sizeB8ue170006Ev, symObjAddr: 0x4580, symBinAddr: 0x100005DA8, symSize: 0x14 }
  - { offsetInCU: 0x9224, offset: 0x9224, size: 0x8, addend: 0x0, symName: __ZNSt3__19allocatorI7Vector2E10deallocateB8ue170006EPS1_m, symObjAddr: 0x4594, symBinAddr: 0x100005DBC, symSize: 0x40 }
  - { offsetInCU: 0x9264, offset: 0x9264, size: 0x8, addend: 0x0, symName: __ZNSt3__117__compressed_pairIPP7Vector2NS_9allocatorIS2_EEE5firstB8ue170006Ev, symObjAddr: 0x4650, symBinAddr: 0x100005E78, symSize: 0x24 }
  - { offsetInCU: 0x9288, offset: 0x9288, size: 0x8, addend: 0x0, symName: __ZNSt3__122__compressed_pair_elemIPP7Vector2Li0ELb0EE5__getB8ue170006Ev, symObjAddr: 0x4674, symBinAddr: 0x100005E9C, symSize: 0x14 }
  - { offsetInCU: 0x92AC, offset: 0x92AC, size: 0x8, addend: 0x0, symName: __ZNSt3__117__compressed_pairIPP7Vector2RNS_9allocatorIS2_EEE5firstB8ue170006Ev, symObjAddr: 0x4688, symBinAddr: 0x100005EB0, symSize: 0x24 }
  - { offsetInCU: 0x92D0, offset: 0x92D0, size: 0x8, addend: 0x0, symName: __ZNSt3__114__split_bufferIP7Vector2RNS_9allocatorIS2_EEED2Ev, symObjAddr: 0x46AC, symBinAddr: 0x100005ED4, symSize: 0x8C }
  - { offsetInCU: 0x92FA, offset: 0x92FA, size: 0x8, addend: 0x0, symName: __ZNSt3__114__split_bufferIP7Vector2RNS_9allocatorIS2_EEE5clearB8ue170006Ev, symObjAddr: 0x4738, symBinAddr: 0x100005F60, symSize: 0x28 }
  - { offsetInCU: 0x931E, offset: 0x931E, size: 0x8, addend: 0x0, symName: __ZNSt3__116allocator_traitsINS_9allocatorIP7Vector2EEE10deallocateB8ue170006ERS4_PS3_m, symObjAddr: 0x4760, symBinAddr: 0x100005F88, symSize: 0x34 }
  - { offsetInCU: 0x935F, offset: 0x935F, size: 0x8, addend: 0x0, symName: __ZNKSt3__114__split_bufferIP7Vector2RNS_9allocatorIS2_EEE8capacityB8ue170006Ev, symObjAddr: 0x4794, symBinAddr: 0x100005FBC, symSize: 0x40 }
  - { offsetInCU: 0x9383, offset: 0x9383, size: 0x8, addend: 0x0, symName: __ZNSt3__114__split_bufferIP7Vector2RNS_9allocatorIS2_EEE17__destruct_at_endB8ue170006EPS2_, symObjAddr: 0x47D4, symBinAddr: 0x100005FFC, symSize: 0x2C }
  - { offsetInCU: 0x93B5, offset: 0x93B5, size: 0x8, addend: 0x0, symName: __ZNSt3__114__split_bufferIP7Vector2RNS_9allocatorIS2_EEE17__destruct_at_endB8ue170006EPS2_NS_17integral_constantIbLb0EEE, symObjAddr: 0x4800, symBinAddr: 0x100006028, symSize: 0x80 }
  - { offsetInCU: 0x93F3, offset: 0x93F3, size: 0x8, addend: 0x0, symName: __ZNSt3__116allocator_traitsINS_9allocatorIP7Vector2EEE7destroyB8ue170006IS3_vEEvRS4_PT_, symObjAddr: 0x4880, symBinAddr: 0x1000060A8, symSize: 0x2C }
  - { offsetInCU: 0x942F, offset: 0x942F, size: 0x8, addend: 0x0, symName: __ZNSt3__19allocatorIP7Vector2E7destroyB8ue170006EPS2_, symObjAddr: 0x48AC, symBinAddr: 0x1000060D4, symSize: 0x14 }
  - { offsetInCU: 0x9461, offset: 0x9461, size: 0x8, addend: 0x0, symName: __ZNSt3__19allocatorIP7Vector2E10deallocateB8ue170006EPS2_m, symObjAddr: 0x48C0, symBinAddr: 0x1000060E8, symSize: 0x40 }
  - { offsetInCU: 0x94A1, offset: 0x94A1, size: 0x8, addend: 0x0, symName: __ZNKSt3__114__split_bufferIP7Vector2RNS_9allocatorIS2_EEE9__end_capB8ue170006Ev, symObjAddr: 0x4900, symBinAddr: 0x100006128, symSize: 0x28 }
  - { offsetInCU: 0x94C5, offset: 0x94C5, size: 0x8, addend: 0x0, symName: __ZNKSt3__117__compressed_pairIPP7Vector2RNS_9allocatorIS2_EEE5firstB8ue170006Ev, symObjAddr: 0x4928, symBinAddr: 0x100006150, symSize: 0x24 }
  - { offsetInCU: 0x94E9, offset: 0x94E9, size: 0x8, addend: 0x0, symName: __ZNSt3__116__deque_iteratorI7Vector2PS1_RS1_PS2_lLl512EEC1B8ue170006ES4_S2_, symObjAddr: 0x494C, symBinAddr: 0x100006174, symSize: 0x3C }
  - { offsetInCU: 0x952F, offset: 0x952F, size: 0x8, addend: 0x0, symName: __ZNSt3__116__deque_iteratorI7Vector2PS1_RS1_PS2_lLl512EEC2B8ue170006ES4_S2_, symObjAddr: 0x4988, symBinAddr: 0x1000061B0, symSize: 0x2C }
  - { offsetInCU: 0x9575, offset: 0x9575, size: 0x8, addend: 0x0, symName: __ZNSt3__116__deque_iteratorI7Vector2PS1_RS1_PS2_lLl512EEpLB8ue170006El, symObjAddr: 0x49B4, symBinAddr: 0x1000061DC, symSize: 0x110 }
  - { offsetInCU: 0x95C5, offset: 0x95C5, size: 0x8, addend: 0x0, symName: __ZNSt3__15dequeI7Vector2NS_9allocatorIS1_EEE13__deque_rangeC2B8ue170006ENS_16__deque_iteratorIS1_PS1_RS1_PS7_lLl512EEESA_, symObjAddr: 0x4AC4, symBinAddr: 0x1000062EC, symSize: 0x34 }
  - { offsetInCU: 0x960B, offset: 0x960B, size: 0x8, addend: 0x0, symName: __ZNSt3__15dequeI7Vector2NS_9allocatorIS1_EEE19__deque_block_rangeC1B8ue170006EPS1_S6_, symObjAddr: 0x4B58, symBinAddr: 0x100006380, symSize: 0x3C }
  - { offsetInCU: 0x9651, offset: 0x9651, size: 0x8, addend: 0x0, symName: __ZNSt3__15dequeI7Vector2NS_9allocatorIS1_EEE19__deque_block_rangeC2B8ue170006EPS1_S6_, symObjAddr: 0x4B94, symBinAddr: 0x1000063BC, symSize: 0x2C }
  - { offsetInCU: 0x9697, offset: 0x9697, size: 0x8, addend: 0x0, symName: __ZNSt3__15dequeI7Vector2NS_9allocatorIS1_EEE21_ConstructTransactionC2B8ue170006EPS4_RNS4_19__deque_block_rangeE, symObjAddr: 0x4BC0, symBinAddr: 0x1000063E8, symSize: 0x48 }
  - { offsetInCU: 0x96DD, offset: 0x96DD, size: 0x8, addend: 0x0, symName: __ZNSt3__19allocatorI7Vector2E9constructB8ue170006IS1_JRKS1_EEEvPT_DpOT0_, symObjAddr: 0x4C08, symBinAddr: 0x100006430, symSize: 0x28 }
  - { offsetInCU: 0x9731, offset: 0x9731, size: 0x8, addend: 0x0, symName: __ZNSt3__15dequeI7Vector2NS_9allocatorIS1_EEE21_ConstructTransactionD2B8ue170006Ev, symObjAddr: 0x4C30, symBinAddr: 0x100006458, symSize: 0x5C }
  - { offsetInCU: 0x9759, offset: 0x9759, size: 0x8, addend: 0x0, symName: __ZNSt3__15dequeI7Vector2NS_9allocatorIS1_EEE6__sizeB8ue170006Ev, symObjAddr: 0x4C8C, symBinAddr: 0x1000064B4, symSize: 0x28 }
  - { offsetInCU: 0x977D, offset: 0x977D, size: 0x8, addend: 0x0, symName: __ZNSt3__117__compressed_pairImNS_9allocatorI7Vector2EEE5firstB8ue170006Ev, symObjAddr: 0x4CB4, symBinAddr: 0x1000064DC, symSize: 0x24 }
  - { offsetInCU: 0x97A1, offset: 0x97A1, size: 0x8, addend: 0x0, symName: __ZNSt3__122__compressed_pair_elemImLi0ELb0EE5__getB8ue170006Ev, symObjAddr: 0x4CD8, symBinAddr: 0x100006500, symSize: 0x14 }
  - { offsetInCU: 0x97C5, offset: 0x97C5, size: 0x8, addend: 0x0, symName: __ZNSt3__116__deque_iteratorI7Vector2PKS1_RS2_PKS3_lLl512EEC1B8ue170006ES6_S3_, symObjAddr: 0x4E2C, symBinAddr: 0x100006654, symSize: 0x3C }
  - { offsetInCU: 0x980B, offset: 0x980B, size: 0x8, addend: 0x0, symName: __ZNSt3__116__deque_iteratorI7Vector2PKS1_RS2_PKS3_lLl512EEC2B8ue170006ES6_S3_, symObjAddr: 0x4E68, symBinAddr: 0x100006690, symSize: 0x2C }
  - { offsetInCU: 0x9851, offset: 0x9851, size: 0x8, addend: 0x0, symName: __ZNSt3__114__split_bufferIP7Vector2NS_9allocatorIS2_EEED2Ev, symObjAddr: 0x4E94, symBinAddr: 0x1000066BC, symSize: 0x80 }
  - { offsetInCU: 0x987B, offset: 0x987B, size: 0x8, addend: 0x0, symName: __ZNSt3__114__split_bufferIP7Vector2NS_9allocatorIS2_EEE5clearB8ue170006Ev, symObjAddr: 0x4F14, symBinAddr: 0x10000673C, symSize: 0x28 }
  - { offsetInCU: 0x989F, offset: 0x989F, size: 0x8, addend: 0x0, symName: __ZNSt3__114__split_bufferIP7Vector2NS_9allocatorIS2_EEE17__destruct_at_endB8ue170006EPS2_, symObjAddr: 0x4F3C, symBinAddr: 0x100006764, symSize: 0x2C }
  - { offsetInCU: 0x98D1, offset: 0x98D1, size: 0x8, addend: 0x0, symName: __ZNSt3__114__split_bufferIP7Vector2NS_9allocatorIS2_EEE17__destruct_at_endB8ue170006EPS2_NS_17integral_constantIbLb0EEE, symObjAddr: 0x4F68, symBinAddr: 0x100006790, symSize: 0x80 }
  - { offsetInCU: 0x990F, offset: 0x990F, size: 0x8, addend: 0x0, symName: __ZNSt3__15dequeI7Vector2NS_9allocatorIS1_EEED2B8ue170006Ev, symObjAddr: 0x4FE8, symBinAddr: 0x100006810, symSize: 0xA4 }
  - { offsetInCU: 0x9963, offset: 0x9963, size: 0x8, addend: 0x0, symName: __ZNSt3__15dequeI7Vector2NS_9allocatorIS1_EEE5clearEv, symObjAddr: 0x508C, symBinAddr: 0x1000068B4, symSize: 0x178 }
  - { offsetInCU: 0x99BC, offset: 0x99BC, size: 0x8, addend: 0x0, symName: __ZNSt3__15dequeI7Vector2NS_9allocatorIS1_EEE5beginB8ue170006Ev, symObjAddr: 0x5204, symBinAddr: 0x100006A2C, symSize: 0xA8 }
  - { offsetInCU: 0x99EF, offset: 0x99EF, size: 0x8, addend: 0x0, symName: __ZNSt3__116allocator_traitsINS_9allocatorI7Vector2EEE7destroyB8ue170006IS2_vEEvRS3_PT_, symObjAddr: 0x52E0, symBinAddr: 0x100006B08, symSize: 0x2C }
  - { offsetInCU: 0x9A2B, offset: 0x9A2B, size: 0x8, addend: 0x0, symName: __ZNKSt3__116__deque_iteratorI7Vector2PS1_RS1_PS2_lLl512EEdeB8ue170006Ev, symObjAddr: 0x530C, symBinAddr: 0x100006B34, symSize: 0x18 }
  - { offsetInCU: 0x9A4F, offset: 0x9A4F, size: 0x8, addend: 0x0, symName: __ZNSt3__116__deque_iteratorI7Vector2PS1_RS1_PS2_lLl512EEppB8ue170006Ev, symObjAddr: 0x5324, symBinAddr: 0x100006B4C, symSize: 0x70 }
  - { offsetInCU: 0x9A73, offset: 0x9A73, size: 0x8, addend: 0x0, symName: __ZNSt3__19allocatorI7Vector2E7destroyB8ue170006EPS1_, symObjAddr: 0x5394, symBinAddr: 0x100006BBC, symSize: 0x14 }
  - { offsetInCU: 0x3952, offset: 0xD54E, size: 0x8, addend: 0x0, symName: __ZN4GameC2Ev, symObjAddr: 0x0, symBinAddr: 0x100006BD0, symSize: 0x15C }
  - { offsetInCU: 0x397C, offset: 0xD578, size: 0x8, addend: 0x0, symName: __ZN5SnakeD1Ev, symObjAddr: 0x1BC, symBinAddr: 0x100006D2C, symSize: 0x2C }
  - { offsetInCU: 0x39A6, offset: 0xD5A2, size: 0x8, addend: 0x0, symName: __ZN4GameC1Ev, symObjAddr: 0x1E8, symBinAddr: 0x100006D58, symSize: 0x2C }
  - { offsetInCU: 0x39D0, offset: 0xD5CC, size: 0x8, addend: 0x0, symName: __ZN4GameD2Ev, symObjAddr: 0x214, symBinAddr: 0x100006D84, symSize: 0xB0 }
  - { offsetInCU: 0x39FA, offset: 0xD5F6, size: 0x8, addend: 0x0, symName: __ZN4GameD1Ev, symObjAddr: 0x2D0, symBinAddr: 0x100006E34, symSize: 0x2C }
  - { offsetInCU: 0x3A24, offset: 0xD620, size: 0x8, addend: 0x0, symName: __ZN4Game4DrawEv, symObjAddr: 0x2FC, symBinAddr: 0x100006E60, symSize: 0x34 }
  - { offsetInCU: 0x3A4A, offset: 0xD646, size: 0x8, addend: 0x0, symName: __ZN4Game11UpdateMusicEv, symObjAddr: 0x330, symBinAddr: 0x100006E94, symSize: 0x3C }
  - { offsetInCU: 0x3A70, offset: 0xD66C, size: 0x8, addend: 0x0, symName: __ZN4Game6UpdateEv, symObjAddr: 0x36C, symBinAddr: 0x100006ED0, symSize: 0x54 }
  - { offsetInCU: 0x3A96, offset: 0xD692, size: 0x8, addend: 0x0, symName: __ZN4Game22CheckCollisionWithFoodEv, symObjAddr: 0x3C0, symBinAddr: 0x100006F24, symSize: 0x14C }
  - { offsetInCU: 0x3ABC, offset: 0xD6B8, size: 0x8, addend: 0x0, symName: __ZN4Game23CheckCollisionWithEdgesEv, symObjAddr: 0x50C, symBinAddr: 0x100007070, symSize: 0xD4 }
  - { offsetInCU: 0x3AE2, offset: 0xD6DE, size: 0x8, addend: 0x0, symName: __ZN4Game22CheckCollisionWithTailEv, symObjAddr: 0x5E0, symBinAddr: 0x100007144, symSize: 0xE0 }
  - { offsetInCU: 0x3B16, offset: 0xD712, size: 0x8, addend: 0x0, symName: __Z13Vector2Equals7Vector2S_, symObjAddr: 0x6C0, symBinAddr: 0x100007224, symSize: 0xC4 }
  - { offsetInCU: 0x3B62, offset: 0xD75E, size: 0x8, addend: 0x0, symName: __ZNSt3__15dequeI7Vector2NS_9allocatorIS1_EEEixEm, symObjAddr: 0x784, symBinAddr: 0x1000072E8, symSize: 0x5C }
  - { offsetInCU: 0x3BA6, offset: 0xD7A2, size: 0x8, addend: 0x0, symName: __ZN4Game8GameOverEv, symObjAddr: 0x7E0, symBinAddr: 0x100007344, symSize: 0x12C }
  - { offsetInCU: 0x3BCC, offset: 0xD7C8, size: 0x8, addend: 0x0, symName: __ZNSt3__15dequeI7Vector2NS_9allocatorIS1_EEE9pop_frontEv, symObjAddr: 0x90C, symBinAddr: 0x100007470, symSize: 0xD4 }
  - { offsetInCU: 0x3C1F, offset: 0xD81B, size: 0x8, addend: 0x0, symName: __ZN5SnakeD2Ev, symObjAddr: 0x9E0, symBinAddr: 0x100007544, symSize: 0x2C }
  - { offsetInCU: 0x3C85, offset: 0xD881, size: 0x8, addend: 0x0, symName: __ZNKSt3__15dequeI7Vector2NS_9allocatorIS1_EEE23__annotate_shrink_frontB8ue170006Emm, symObjAddr: 0x59B0, symBinAddr: 0x100007570, symSize: 0x70 }
  - { offsetInCU: 0x3CC7, offset: 0xD8C3, size: 0x8, addend: 0x0, symName: __ZNSt3__15dequeI7Vector2NS_9allocatorIS1_EEE26__maybe_remove_front_spareB8ue170006Eb, symObjAddr: 0x5A20, symBinAddr: 0x1000075E0, symSize: 0xEC }
  - { offsetInCU: 0x3CFA, offset: 0xD8F6, size: 0x8, addend: 0x0, symName: __ZNKSt3__15dequeI7Vector2NS_9allocatorIS1_EEE20__front_spare_blocksB8ue170006Ev, symObjAddr: 0x5B0C, symBinAddr: 0x1000076CC, symSize: 0x2C }
  - { offsetInCU: 0x1431, offset: 0xED5A, size: 0x8, addend: 0x0, symName: __ZNSt3__16copy_nB8ue170006IPK7Vector2lNS_16__deque_iteratorIS1_PS1_RS1_PS5_lLl512EEEEENS_9enable_ifIXsr37__has_random_access_iterator_categoryIT_EE5valueET1_E4typeESA_T0_SB_, symObjAddr: 0x5F44, symBinAddr: 0x10000932C, symSize: 0x64 }
  - { offsetInCU: 0x1FD5, offset: 0xF8FE, size: 0x8, addend: 0x0, symName: __ZNSt3__18distanceB8ue170006IPK7Vector2EENS_15iterator_traitsIT_E15difference_typeES5_S5_, symObjAddr: 0x1348, symBinAddr: 0x100008228, symSize: 0x2C }
  - { offsetInCU: 0x208E, offset: 0xF9B7, size: 0x8, addend: 0x0, symName: __ZNSt3__110__distanceB8ue170006IPK7Vector2EENS_15iterator_traitsIT_E15difference_typeES5_S5_NS_26random_access_iterator_tagE, symObjAddr: 0x4BB8, symBinAddr: 0x100008254, symSize: 0x28 }
  - { offsetInCU: 0x2534, offset: 0xFE5D, size: 0x8, addend: 0x0, symName: __ZNSt3__14copyB8ue170006IPK7Vector2NS_16__deque_iteratorIS1_PS1_RS1_PS5_lLl512EEEEET0_T_SA_S9_, symObjAddr: 0x5D50, symBinAddr: 0x100009138, symSize: 0x60 }
  - { offsetInCU: 0x258E, offset: 0xFEB7, size: 0x8, addend: 0x0, symName: __ZNSt3__16__copyB8ue170006INS_17_ClassicAlgPolicyEPK7Vector2S4_NS_16__deque_iteratorIS2_PS2_RS2_PS6_lLl512EEEEENS_4pairIT0_T2_EESB_T1_SC_, symObjAddr: 0x5FE4, symBinAddr: 0x1000093CC, symSize: 0x44 }
  - { offsetInCU: 0x25FA, offset: 0xFF23, size: 0x8, addend: 0x0, symName: __ZNSt3__123__dispatch_copy_or_moveB8ue170006INS_17_ClassicAlgPolicyENS_11__copy_loopIS1_EENS_14__copy_trivialEPK7Vector2S7_NS_16__deque_iteratorIS5_PS5_RS5_PS9_lLl512EEEEENS_4pairIT2_T4_EESE_T3_SF_, symObjAddr: 0x6028, symBinAddr: 0x100009410, symSize: 0x44 }
  - { offsetInCU: 0x2678, offset: 0xFFA1, size: 0x8, addend: 0x0, symName: __ZNSt3__121__unwrap_and_dispatchB8ue170006INS_10__overloadINS_11__copy_loopINS_17_ClassicAlgPolicyEEENS_14__copy_trivialEEEPK7Vector2S9_NS_16__deque_iteratorIS7_PS7_RS7_PSB_lLl512EEELi0EEENS_4pairIT0_T2_EESG_T1_SH_, symObjAddr: 0x606C, symBinAddr: 0x100009454, symSize: 0xF0 }
  - { offsetInCU: 0x2707, offset: 0x10030, size: 0x8, addend: 0x0, symName: __ZNSt3__114__unwrap_rangeB8ue170006IPK7Vector2S3_EENS_4pairIT0_S5_EET_S7_, symObjAddr: 0x615C, symBinAddr: 0x100009544, symSize: 0x60 }
  - { offsetInCU: 0x2876, offset: 0x1019F, size: 0x8, addend: 0x0, symName: __ZNSt3__113__unwrap_iterB8ue170006INS_16__deque_iteratorI7Vector2PS2_RS2_PS3_lLl512EEENS_18__unwrap_iter_implIS6_Lb0EEELi0EEEDTclsrT0_8__unwrapclsr3stdE7declvalIT_EEEESA_, symObjAddr: 0x6320, symBinAddr: 0x100009708, symSize: 0x44 }
  - { offsetInCU: 0x28BA, offset: 0x101E3, size: 0x8, addend: 0x0, symName: __ZNSt3__19make_pairB8ue170006IPK7Vector2NS_16__deque_iteratorIS1_PS1_RS1_PS5_lLl512EEEEENS_4pairINS_18__unwrap_ref_decayIT_E4typeENSA_IT0_E4typeEEEOSB_OSE_, symObjAddr: 0x6364, symBinAddr: 0x10000974C, symSize: 0x38 }
  - { offsetInCU: 0x2909, offset: 0x10232, size: 0x8, addend: 0x0, symName: __ZNSt3__114__rewrap_rangeB8ue170006IPK7Vector2S3_EET_S4_T0_, symObjAddr: 0x639C, symBinAddr: 0x100009784, symSize: 0x2C }
  - { offsetInCU: 0x2955, offset: 0x1027E, size: 0x8, addend: 0x0, symName: __ZNSt3__113__rewrap_iterB8ue170006INS_16__deque_iteratorI7Vector2PS2_RS2_PS3_lLl512EEES6_NS_18__unwrap_iter_implIS6_Lb0EEEEET_S9_T0_, symObjAddr: 0x63C8, symBinAddr: 0x1000097B0, symSize: 0x74 }
  - { offsetInCU: 0x29AA, offset: 0x102D3, size: 0x8, addend: 0x0, symName: __ZNSt3__19make_pairB8ue170006IPK7Vector2S3_EENS_4pairINS_18__unwrap_ref_decayIT_E4typeENS5_IT0_E4typeEEEOS6_OS9_, symObjAddr: 0x643C, symBinAddr: 0x100009824, symSize: 0x38 }
  - { offsetInCU: 0x29F9, offset: 0x10322, size: 0x8, addend: 0x0, symName: __ZNSt3__113__unwrap_iterB8ue170006IPK7Vector2NS_18__unwrap_iter_implIS3_Lb1EEELi0EEEDTclsrT0_8__unwrapclsr3stdE7declvalIT_EEEES7_, symObjAddr: 0x6474, symBinAddr: 0x10000985C, symSize: 0x24 }
  - { offsetInCU: 0x2B64, offset: 0x1048D, size: 0x8, addend: 0x0, symName: __ZNSt3__112__to_addressB8ue170006IK7Vector2EEPT_S4_, symObjAddr: 0x652C, symBinAddr: 0x100009914, symSize: 0x14 }
  - { offsetInCU: 0x2C45, offset: 0x1056E, size: 0x8, addend: 0x0, symName: __ZNSt3__13minB8ue170006IlEERKT_S3_S3_, symObjAddr: 0x658C, symBinAddr: 0x100009974, symSize: 0x2C }
  - { offsetInCU: 0x2C88, offset: 0x105B1, size: 0x8, addend: 0x0, symName: __ZNSt3__16__copyB8ue170006INS_17_ClassicAlgPolicyEPK7Vector2S4_PS2_EENS_4pairIT0_T2_EES7_T1_S8_, symObjAddr: 0x65B8, symBinAddr: 0x1000099A0, symSize: 0x44 }
  - { offsetInCU: 0x2CF0, offset: 0x10619, size: 0x8, addend: 0x0, symName: __ZNSt3__13minB8ue170006IlNS_6__lessIvvEEEERKT_S5_S5_T0_, symObjAddr: 0x6698, symBinAddr: 0x100009A80, symSize: 0x54 }
  - { offsetInCU: 0x2D4A, offset: 0x10673, size: 0x8, addend: 0x0, symName: __ZNSt3__123__dispatch_copy_or_moveB8ue170006INS_17_ClassicAlgPolicyENS_11__copy_loopIS1_EENS_14__copy_trivialEPK7Vector2S7_PS5_EENS_4pairIT2_T4_EESA_T3_SB_, symObjAddr: 0x6720, symBinAddr: 0x100009B08, symSize: 0x44 }
  - { offsetInCU: 0x2DC8, offset: 0x106F1, size: 0x8, addend: 0x0, symName: __ZNSt3__121__unwrap_and_dispatchB8ue170006INS_10__overloadINS_11__copy_loopINS_17_ClassicAlgPolicyEEENS_14__copy_trivialEEEPK7Vector2S9_PS7_Li0EEENS_4pairIT0_T2_EESC_T1_SD_, symObjAddr: 0x6764, symBinAddr: 0x100009B4C, symSize: 0xB4 }
  - { offsetInCU: 0x2F9F, offset: 0x108C8, size: 0x8, addend: 0x0, symName: __ZNSt3__113__unwrap_iterB8ue170006IP7Vector2NS_18__unwrap_iter_implIS2_Lb1EEELi0EEEDTclsrT0_8__unwrapclsr3stdE7declvalIT_EEEES6_, symObjAddr: 0x6860, symBinAddr: 0x100009C48, symSize: 0x24 }
  - { offsetInCU: 0x2FE3, offset: 0x1090C, size: 0x8, addend: 0x0, symName: __ZNSt3__19make_pairB8ue170006IPK7Vector2PS1_EENS_4pairINS_18__unwrap_ref_decayIT_E4typeENS6_IT0_E4typeEEEOS7_OSA_, symObjAddr: 0x6884, symBinAddr: 0x100009C6C, symSize: 0x38 }
  - { offsetInCU: 0x3032, offset: 0x1095B, size: 0x8, addend: 0x0, symName: __ZNSt3__113__rewrap_iterB8ue170006IP7Vector2S2_NS_18__unwrap_iter_implIS2_Lb1EEEEET_S5_T0_, symObjAddr: 0x68BC, symBinAddr: 0x100009CA4, symSize: 0x3C }
  - { offsetInCU: 0x3087, offset: 0x109B0, size: 0x8, addend: 0x0, symName: __ZNSt3__119__copy_trivial_implB8ue170006IK7Vector2S1_EENS_4pairIPT_PT0_EES5_S5_S7_, symObjAddr: 0x68F8, symBinAddr: 0x100009CE0, symSize: 0x80 }
  - { offsetInCU: 0x30EF, offset: 0x10A18, size: 0x8, addend: 0x0, symName: __ZNSt3__119__constexpr_memmoveB8ue170006I7Vector2KS1_Li0EEEPT_S4_PT0_NS_15__element_countE, symObjAddr: 0x6978, symBinAddr: 0x100009D60, symSize: 0x64 }
  - { offsetInCU: 0x315D, offset: 0x10A86, size: 0x8, addend: 0x0, symName: __ZNSt3__19make_pairB8ue170006IRPK7Vector2PS1_EENS_4pairINS_18__unwrap_ref_decayIT_E4typeENS7_IT0_E4typeEEEOS8_OSB_, symObjAddr: 0x69DC, symBinAddr: 0x100009DC4, symSize: 0x38 }
  - { offsetInCU: 0x3247, offset: 0x10B70, size: 0x8, addend: 0x0, symName: __ZNSt3__113__rewrap_iterB8ue170006IPK7Vector2S3_NS_18__unwrap_iter_implIS3_Lb1EEEEET_S6_T0_, symObjAddr: 0x6BFC, symBinAddr: 0x100009FE4, symSize: 0x3C }
  - { offsetInCU: 0x5260, offset: 0x12B89, size: 0x8, addend: 0x0, symName: __ZN5SnakeC2Ev, symObjAddr: 0x0, symBinAddr: 0x1000076F8, symSize: 0xA8 }
  - { offsetInCU: 0x528A, offset: 0x12BB3, size: 0x8, addend: 0x0, symName: __ZNSt3__15dequeI7Vector2NS_9allocatorIS1_EEEC1ESt16initializer_listIS1_E, symObjAddr: 0xA8, symBinAddr: 0x1000077A0, symSize: 0x3C }
  - { offsetInCU: 0x52C3, offset: 0x12BEC, size: 0x8, addend: 0x0, symName: __ZN5SnakeC1Ev, symObjAddr: 0xE4, symBinAddr: 0x1000077DC, symSize: 0x2C }
  - { offsetInCU: 0x52ED, offset: 0x12C16, size: 0x8, addend: 0x0, symName: __ZN5Snake4DrawEv, symObjAddr: 0x110, symBinAddr: 0x100007808, symSize: 0x150 }
  - { offsetInCU: 0x5367, offset: 0x12C90, size: 0x8, addend: 0x0, symName: __ZN5Snake6UpdateEv, symObjAddr: 0x2E4, symBinAddr: 0x100007958, symSize: 0x90 }
  - { offsetInCU: 0x538D, offset: 0x12CB6, size: 0x8, addend: 0x0, symName: __ZNSt3__15dequeI7Vector2NS_9allocatorIS1_EEE10push_frontEOS1_, symObjAddr: 0x374, symBinAddr: 0x1000079E8, symSize: 0xBC }
  - { offsetInCU: 0x53D1, offset: 0x12CFA, size: 0x8, addend: 0x0, symName: __Z10Vector2Add7Vector2S_, symObjAddr: 0x430, symBinAddr: 0x100007AA4, symSize: 0x44 }
  - { offsetInCU: 0x5419, offset: 0x12D42, size: 0x8, addend: 0x0, symName: __ZNSt3__15dequeI7Vector2NS_9allocatorIS1_EEE8pop_backEv, symObjAddr: 0x474, symBinAddr: 0x100007AE8, symSize: 0xE0 }
  - { offsetInCU: 0x547B, offset: 0x12DA4, size: 0x8, addend: 0x0, symName: __ZN5Snake5ResetEv, symObjAddr: 0x554, symBinAddr: 0x100007BC8, symSize: 0xA8 }
  - { offsetInCU: 0x54A1, offset: 0x12DCA, size: 0x8, addend: 0x0, symName: __ZNSt3__15dequeI7Vector2NS_9allocatorIS1_EEEaSB8ue170006ESt16initializer_listIS1_E, symObjAddr: 0x5FC, symBinAddr: 0x100007C70, symSize: 0x44 }
  - { offsetInCU: 0x54D4, offset: 0x12DFD, size: 0x8, addend: 0x0, symName: __ZNSt3__15dequeI7Vector2NS_9allocatorIS1_EEEC2ESt16initializer_listIS1_E, symObjAddr: 0x640, symBinAddr: 0x100007CB4, symSize: 0xB8 }
  - { offsetInCU: 0x550D, offset: 0x12E36, size: 0x8, addend: 0x0, symName: __ZNSt3__114__split_bufferIP7Vector2NS_9allocatorIS2_EEEC1B8ue170006Ev, symObjAddr: 0x6F8, symBinAddr: 0x100007D6C, symSize: 0x2C }
  - { offsetInCU: 0x553F, offset: 0x12E68, size: 0x8, addend: 0x0, symName: __ZNSt3__117__compressed_pairImNS_9allocatorI7Vector2EEEC1B8ue170006IiNS_18__default_init_tagEEEOT_OT0_, symObjAddr: 0x724, symBinAddr: 0x100007D98, symSize: 0x3C }
  - { offsetInCU: 0x559A, offset: 0x12EC3, size: 0x8, addend: 0x0, symName: __ZNSt3__15dequeI7Vector2NS_9allocatorIS1_EEE8__appendIPKS1_EEvT_S8_PNS_9enable_ifIXsr31__has_forward_iterator_categoryIS8_EE5valueEvE4typeE, symObjAddr: 0x828, symBinAddr: 0x100007DD4, symSize: 0x54 }
  - { offsetInCU: 0x55F2, offset: 0x12F1B, size: 0x8, addend: 0x0, symName: __ZNKSt16initializer_listI7Vector2E5beginB8ue170006Ev, symObjAddr: 0x87C, symBinAddr: 0x100007E28, symSize: 0x18 }
  - { offsetInCU: 0x5616, offset: 0x12F3F, size: 0x8, addend: 0x0, symName: __ZNKSt16initializer_listI7Vector2E3endB8ue170006Ev, symObjAddr: 0x894, symBinAddr: 0x100007E40, symSize: 0x20 }
  - { offsetInCU: 0x563A, offset: 0x12F63, size: 0x8, addend: 0x0, symName: __ZNSt3__114__split_bufferIP7Vector2NS_9allocatorIS2_EEEC2B8ue170006Ev, symObjAddr: 0x8E0, symBinAddr: 0x100007E60, symSize: 0x50 }
  - { offsetInCU: 0x5667, offset: 0x12F90, size: 0x8, addend: 0x0, symName: __ZNSt3__117__compressed_pairIPP7Vector2NS_9allocatorIS2_EEEC1B8ue170006IDnNS_18__default_init_tagEEEOT_OT0_, symObjAddr: 0x930, symBinAddr: 0x100007EB0, symSize: 0x3C }
  - { offsetInCU: 0x56BD, offset: 0x12FE6, size: 0x8, addend: 0x0, symName: __ZNSt3__117__compressed_pairIPP7Vector2NS_9allocatorIS2_EEEC2B8ue170006IDnNS_18__default_init_tagEEEOT_OT0_, symObjAddr: 0x978, symBinAddr: 0x100007EEC, symSize: 0x40 }
  - { offsetInCU: 0x5713, offset: 0x1303C, size: 0x8, addend: 0x0, symName: __ZNSt3__122__compressed_pair_elemINS_9allocatorIP7Vector2EELi1ELb1EEC2B8ue170006ENS_18__default_init_tagE, symObjAddr: 0x9D4, symBinAddr: 0x100007F2C, symSize: 0x2C }
  - { offsetInCU: 0x5745, offset: 0x1306E, size: 0x8, addend: 0x0, symName: __ZNSt3__19allocatorIP7Vector2EC2B8ue170006Ev, symObjAddr: 0xA00, symBinAddr: 0x100007F58, symSize: 0x2C }
  - { offsetInCU: 0x576D, offset: 0x13096, size: 0x8, addend: 0x0, symName: __ZNSt3__117__compressed_pairImNS_9allocatorI7Vector2EEEC2B8ue170006IiNS_18__default_init_tagEEEOT_OT0_, symObjAddr: 0xA40, symBinAddr: 0x100007F84, symSize: 0x40 }
  - { offsetInCU: 0x57C3, offset: 0x130EC, size: 0x8, addend: 0x0, symName: __ZNSt3__122__compressed_pair_elemINS_9allocatorI7Vector2EELi1ELb1EEC2B8ue170006ENS_18__default_init_tagE, symObjAddr: 0xAA4, symBinAddr: 0x100007FC4, symSize: 0x2C }
  - { offsetInCU: 0x57F5, offset: 0x1311E, size: 0x8, addend: 0x0, symName: __ZNSt3__19allocatorI7Vector2EC2B8ue170006Ev, symObjAddr: 0xAD0, symBinAddr: 0x100007FF0, symSize: 0x2C }
  - { offsetInCU: 0x581D, offset: 0x13146, size: 0x8, addend: 0x0, symName: __ZNSt3__15dequeI7Vector2NS_9allocatorIS1_EEE18__append_with_sizeB8ue170006IPKS1_EEvT_m, symObjAddr: 0x113C, symBinAddr: 0x10000801C, symSize: 0x20C }
  - { offsetInCU: 0x5932, offset: 0x1325B, size: 0x8, addend: 0x0, symName: __ZNSt3__15dequeI7Vector2NS_9allocatorIS1_EEE20__add_front_capacityEv, symObjAddr: 0x4D94, symBinAddr: 0x10000827C, symSize: 0x3A4 }
  - { offsetInCU: 0x59E5, offset: 0x1330E, size: 0x8, addend: 0x0, symName: __ZNKSt3__15dequeI7Vector2NS_9allocatorIS1_EEE25__annotate_increase_frontB8ue170006Em, symObjAddr: 0x5138, symBinAddr: 0x100008620, symSize: 0x40 }
  - { offsetInCU: 0x5A1D, offset: 0x13346, size: 0x8, addend: 0x0, symName: __ZNSt3__116allocator_traitsINS_9allocatorI7Vector2EEE9constructB8ue170006IS2_JS2_EvEEvRS3_PT_DpOT0_, symObjAddr: 0x5178, symBinAddr: 0x100008660, symSize: 0x34 }
  - { offsetInCU: 0x5A73, offset: 0x1339C, size: 0x8, addend: 0x0, symName: __ZNSt3__116__deque_iteratorI7Vector2PS1_RS1_PS2_lLl512EEmmB8ue170006Ev, symObjAddr: 0x5254, symBinAddr: 0x100008694, symSize: 0x68 }
  - { offsetInCU: 0x5A97, offset: 0x133C0, size: 0x8, addend: 0x0, symName: __ZNSt3__114__split_bufferIP7Vector2NS_9allocatorIS2_EEE4backB8ue170006Ev, symObjAddr: 0x52D4, symBinAddr: 0x1000086FC, symSize: 0x1C }
  - { offsetInCU: 0x5ABB, offset: 0x133E4, size: 0x8, addend: 0x0, symName: __ZNSt3__114__split_bufferIP7Vector2NS_9allocatorIS2_EEE8pop_backB8ue170006Ev, symObjAddr: 0x52F0, symBinAddr: 0x100008718, symSize: 0x2C }
  - { offsetInCU: 0x5ADF, offset: 0x13408, size: 0x8, addend: 0x0, symName: __ZNSt3__114__split_bufferIP7Vector2NS_9allocatorIS2_EEE10push_frontERKS2_, symObjAddr: 0x531C, symBinAddr: 0x100008744, symSize: 0x25C }
  - { offsetInCU: 0x5B55, offset: 0x1347E, size: 0x8, addend: 0x0, symName: __ZNKSt3__114__split_bufferIP7Vector2NS_9allocatorIS2_EEE13__front_spareB8ue170006Ev, symObjAddr: 0x5578, symBinAddr: 0x1000089A0, symSize: 0x28 }
  - { offsetInCU: 0x5B7E, offset: 0x134A7, size: 0x8, addend: 0x0, symName: __ZNSt3__122__allocator_destructorINS_9allocatorI7Vector2EEEC1B8ue170006ERS3_m, symObjAddr: 0x55A0, symBinAddr: 0x1000089C8, symSize: 0x3C }
  - { offsetInCU: 0x5C3F, offset: 0x13568, size: 0x8, addend: 0x0, symName: __ZNSt3__110unique_ptrIP7Vector2NS_22__allocator_destructorINS_9allocatorIS1_EEEEEC1B8ue170006ILb1EvEES2_NS_16__dependent_typeINS_27__unique_ptr_deleter_sfinaeIS6_EEXT_EE20__good_rval_ref_typeE, symObjAddr: 0x55DC, symBinAddr: 0x100008A04, symSize: 0x3C }
  - { offsetInCU: 0x5C8E, offset: 0x135B7, size: 0x8, addend: 0x0, symName: __ZNKSt3__110unique_ptrIP7Vector2NS_22__allocator_destructorINS_9allocatorIS1_EEEEE3getB8ue170006Ev, symObjAddr: 0x5618, symBinAddr: 0x100008A40, symSize: 0x28 }
  - { offsetInCU: 0x5CB2, offset: 0x135DB, size: 0x8, addend: 0x0, symName: __ZNSt3__110unique_ptrIP7Vector2NS_22__allocator_destructorINS_9allocatorIS1_EEEEE7releaseB8ue170006Ev, symObjAddr: 0x5640, symBinAddr: 0x100008A68, symSize: 0x44 }
  - { offsetInCU: 0x5CE5, offset: 0x1360E, size: 0x8, addend: 0x0, symName: __ZNSt3__110unique_ptrIP7Vector2NS_22__allocator_destructorINS_9allocatorIS1_EEEEED1B8ue170006Ev, symObjAddr: 0x5684, symBinAddr: 0x100008AAC, symSize: 0x2C }
  - { offsetInCU: 0x5D0D, offset: 0x13636, size: 0x8, addend: 0x0, symName: __ZNSt3__122__allocator_destructorINS_9allocatorI7Vector2EEEC2B8ue170006ERS3_m, symObjAddr: 0x56B0, symBinAddr: 0x100008AD8, symSize: 0x2C }
  - { offsetInCU: 0x5D51, offset: 0x1367A, size: 0x8, addend: 0x0, symName: __ZNSt3__110unique_ptrIP7Vector2NS_22__allocator_destructorINS_9allocatorIS1_EEEEEC2B8ue170006ILb1EvEES2_NS_16__dependent_typeINS_27__unique_ptr_deleter_sfinaeIS6_EEXT_EE20__good_rval_ref_typeE, symObjAddr: 0x56DC, symBinAddr: 0x100008B04, symSize: 0x48 }
  - { offsetInCU: 0x5DA0, offset: 0x136C9, size: 0x8, addend: 0x0, symName: __ZNSt3__117__compressed_pairIP7Vector2NS_22__allocator_destructorINS_9allocatorIS1_EEEEEC1B8ue170006IRS2_S6_EEOT_OT0_, symObjAddr: 0x5724, symBinAddr: 0x100008B4C, symSize: 0x3C }
  - { offsetInCU: 0x5DF6, offset: 0x1371F, size: 0x8, addend: 0x0, symName: __ZNSt3__117__compressed_pairIP7Vector2NS_22__allocator_destructorINS_9allocatorIS1_EEEEEC2B8ue170006IRS2_S6_EEOT_OT0_, symObjAddr: 0x5760, symBinAddr: 0x100008B88, symSize: 0x48 }
  - { offsetInCU: 0x5E4C, offset: 0x13775, size: 0x8, addend: 0x0, symName: __ZNSt3__122__compressed_pair_elemIP7Vector2Li0ELb0EEC2B8ue170006IRS2_vEEOT_, symObjAddr: 0x57A8, symBinAddr: 0x100008BD0, symSize: 0x24 }
  - { offsetInCU: 0x5E8C, offset: 0x137B5, size: 0x8, addend: 0x0, symName: __ZNSt3__122__compressed_pair_elemINS_22__allocator_destructorINS_9allocatorI7Vector2EEEELi1ELb0EEC2B8ue170006IS5_vEEOT_, symObjAddr: 0x57CC, symBinAddr: 0x100008BF4, symSize: 0x24 }
  - { offsetInCU: 0x5ECC, offset: 0x137F5, size: 0x8, addend: 0x0, symName: __ZNKSt3__117__compressed_pairIP7Vector2NS_22__allocator_destructorINS_9allocatorIS1_EEEEE5firstB8ue170006Ev, symObjAddr: 0x57F0, symBinAddr: 0x100008C18, symSize: 0x24 }
  - { offsetInCU: 0x5EF0, offset: 0x13819, size: 0x8, addend: 0x0, symName: __ZNKSt3__122__compressed_pair_elemIP7Vector2Li0ELb0EE5__getB8ue170006Ev, symObjAddr: 0x5814, symBinAddr: 0x100008C3C, symSize: 0x14 }
  - { offsetInCU: 0x5F14, offset: 0x1383D, size: 0x8, addend: 0x0, symName: __ZNSt3__117__compressed_pairIP7Vector2NS_22__allocator_destructorINS_9allocatorIS1_EEEEE5firstB8ue170006Ev, symObjAddr: 0x5828, symBinAddr: 0x100008C50, symSize: 0x24 }
  - { offsetInCU: 0x5F38, offset: 0x13861, size: 0x8, addend: 0x0, symName: __ZNSt3__122__compressed_pair_elemIP7Vector2Li0ELb0EE5__getB8ue170006Ev, symObjAddr: 0x584C, symBinAddr: 0x100008C74, symSize: 0x14 }
  - { offsetInCU: 0x5F5C, offset: 0x13885, size: 0x8, addend: 0x0, symName: __ZNSt3__110unique_ptrIP7Vector2NS_22__allocator_destructorINS_9allocatorIS1_EEEEED2B8ue170006Ev, symObjAddr: 0x5860, symBinAddr: 0x100008C88, symSize: 0x30 }
  - { offsetInCU: 0x5F84, offset: 0x138AD, size: 0x8, addend: 0x0, symName: __ZNSt3__110unique_ptrIP7Vector2NS_22__allocator_destructorINS_9allocatorIS1_EEEEE5resetB8ue170006ES2_, symObjAddr: 0x5890, symBinAddr: 0x100008CB8, symSize: 0x78 }
  - { offsetInCU: 0x5FC6, offset: 0x138EF, size: 0x8, addend: 0x0, symName: __ZNSt3__117__compressed_pairIP7Vector2NS_22__allocator_destructorINS_9allocatorIS1_EEEEE6secondB8ue170006Ev, symObjAddr: 0x5908, symBinAddr: 0x100008D30, symSize: 0x28 }
  - { offsetInCU: 0x5FEA, offset: 0x13913, size: 0x8, addend: 0x0, symName: __ZNSt3__122__allocator_destructorINS_9allocatorI7Vector2EEEclB8ue170006EPS2_, symObjAddr: 0x5930, symBinAddr: 0x100008D58, symSize: 0x34 }
  - { offsetInCU: 0x601C, offset: 0x13945, size: 0x8, addend: 0x0, symName: __ZNSt3__122__compressed_pair_elemINS_22__allocator_destructorINS_9allocatorI7Vector2EEEELi1ELb0EE5__getB8ue170006Ev, symObjAddr: 0x5964, symBinAddr: 0x100008D8C, symSize: 0x14 }
  - { offsetInCU: 0x6040, offset: 0x13969, size: 0x8, addend: 0x0, symName: __ZNSt3__19allocatorI7Vector2E9constructB8ue170006IS1_JS1_EEEvPT_DpOT0_, symObjAddr: 0x5978, symBinAddr: 0x100008DA0, symSize: 0x28 }
  - { offsetInCU: 0x6094, offset: 0x139BD, size: 0x8, addend: 0x0, symName: __ZNKSt3__15dequeI7Vector2NS_9allocatorIS1_EEE22__annotate_shrink_backB8ue170006Emm, symObjAddr: 0x59CC, symBinAddr: 0x100008DC8, symSize: 0x60 }
  - { offsetInCU: 0x60D6, offset: 0x139FF, size: 0x8, addend: 0x0, symName: __ZNSt3__15dequeI7Vector2NS_9allocatorIS1_EEE25__maybe_remove_back_spareB8ue170006Eb, symObjAddr: 0x5A2C, symBinAddr: 0x100008E28, symSize: 0xE8 }
  - { offsetInCU: 0x6109, offset: 0x13A32, size: 0x8, addend: 0x0, symName: __ZNKSt3__15dequeI7Vector2NS_9allocatorIS1_EEE19__back_spare_blocksB8ue170006Ev, symObjAddr: 0x5B28, symBinAddr: 0x100008F10, symSize: 0x2C }
  - { offsetInCU: 0x612D, offset: 0x13A56, size: 0x8, addend: 0x0, symName: __ZNSt3__15dequeI7Vector2NS_9allocatorIS1_EEE6assignB8ue170006ESt16initializer_listIS1_E, symObjAddr: 0x5B54, symBinAddr: 0x100008F3C, symSize: 0x60 }
  - { offsetInCU: 0x6160, offset: 0x13A89, size: 0x8, addend: 0x0, symName: __ZNSt3__15dequeI7Vector2NS_9allocatorIS1_EEE6assignIPKS1_EEvT_S8_PNS_9enable_ifIXsr37__has_random_access_iterator_categoryIS8_EE5valueEvE4typeE, symObjAddr: 0x5BB4, symBinAddr: 0x100008F9C, symSize: 0x48 }
  - { offsetInCU: 0x61B8, offset: 0x13AE1, size: 0x8, addend: 0x0, symName: __ZNSt3__15dequeI7Vector2NS_9allocatorIS1_EEE32__assign_with_size_random_accessB8ue170006IPKS1_EEvT_l, symObjAddr: 0x5BFC, symBinAddr: 0x100008FE4, symSize: 0x154 }
  - { offsetInCU: 0x6222, offset: 0x13B4B, size: 0x8, addend: 0x0, symName: __ZNSt3__15dequeI7Vector2NS_9allocatorIS1_EEE14__erase_to_endENS_16__deque_iteratorIS1_PKS1_RS6_PKS7_lLl512EEE, symObjAddr: 0x5DB0, symBinAddr: 0x100009198, symSize: 0x194 }
  - { offsetInCU: 0x62F4, offset: 0x13C1D, size: 0x8, addend: 0x0, symName: __ZNSt3__116__deque_iteratorI7Vector2PKS1_RS2_PKS3_lLl512EEC1B8ue170006IPS1_RS1_PS9_EERKNS0_IS1_T_T0_T1_lLl512EEEPNS_9enable_ifIXsr14is_convertibleISC_S3_EE5valueEvE4typeE, symObjAddr: 0x5FA8, symBinAddr: 0x100009390, symSize: 0x3C }
  - { offsetInCU: 0x6374, offset: 0x13C9D, size: 0x8, addend: 0x0, symName: __ZNKSt3__111__copy_loopINS_17_ClassicAlgPolicyEEclB8ue170006IPK7Vector2NS_16__deque_iteratorIS4_PS4_RS4_PS8_lLl512EEELi0EEENS_4pairIT_T0_EESD_SD_SE_, symObjAddr: 0x61BC, symBinAddr: 0x1000095A4, symSize: 0x164 }
  - { offsetInCU: 0x644F, offset: 0x13D78, size: 0x8, addend: 0x0, symName: __ZNSt3__14pairIPK7Vector2S3_EC1B8ue170006IS3_S3_LPv0EEEOT_OT0_, symObjAddr: 0x6498, symBinAddr: 0x100009880, symSize: 0x3C }
  - { offsetInCU: 0x64AB, offset: 0x13DD4, size: 0x8, addend: 0x0, symName: __ZNSt3__14pairIPK7Vector2S3_EC2B8ue170006IS3_S3_LPv0EEEOT_OT0_, symObjAddr: 0x64D4, symBinAddr: 0x1000098BC, symSize: 0x34 }
  - { offsetInCU: 0x6507, offset: 0x13E30, size: 0x8, addend: 0x0, symName: __ZNSt3__118__unwrap_iter_implIPK7Vector2Lb1EE8__unwrapB8ue170006ES3_, symObjAddr: 0x6508, symBinAddr: 0x1000098F0, symSize: 0x24 }
  - { offsetInCU: 0x6529, offset: 0x13E52, size: 0x8, addend: 0x0, symName: __ZNSt3__127__segmented_iterator_traitsINS_16__deque_iteratorI7Vector2PS2_RS2_PS3_lLl512EEEE7__localB8ue170006ES6_, symObjAddr: 0x6540, symBinAddr: 0x100009928, symSize: 0x18 }
  - { offsetInCU: 0x654C, offset: 0x13E75, size: 0x8, addend: 0x0, symName: __ZNSt3__127__segmented_iterator_traitsINS_16__deque_iteratorI7Vector2PS2_RS2_PS3_lLl512EEEE9__segmentB8ue170006ES6_, symObjAddr: 0x6558, symBinAddr: 0x100009940, symSize: 0x18 }
  - { offsetInCU: 0x656F, offset: 0x13E98, size: 0x8, addend: 0x0, symName: __ZNSt3__127__segmented_iterator_traitsINS_16__deque_iteratorI7Vector2PS2_RS2_PS3_lLl512EEEE5__endB8ue170006ES5_, symObjAddr: 0x6570, symBinAddr: 0x100009958, symSize: 0x1C }
  - { offsetInCU: 0x6592, offset: 0x13EBB, size: 0x8, addend: 0x0, symName: __ZNSt3__127__segmented_iterator_traitsINS_16__deque_iteratorI7Vector2PS2_RS2_PS3_lLl512EEEE9__composeB8ue170006ES5_S3_, symObjAddr: 0x65FC, symBinAddr: 0x1000099E4, symSize: 0x84 }
  - { offsetInCU: 0x65C4, offset: 0x13EED, size: 0x8, addend: 0x0, symName: __ZNSt3__127__segmented_iterator_traitsINS_16__deque_iteratorI7Vector2PS2_RS2_PS3_lLl512EEEE7__beginB8ue170006ES5_, symObjAddr: 0x6680, symBinAddr: 0x100009A68, symSize: 0x18 }
  - { offsetInCU: 0x65F1, offset: 0x13F1A, size: 0x8, addend: 0x0, symName: __ZNKSt3__16__lessIvvEclB8ue170006IllEEbRKT_RKT0_, symObjAddr: 0x66EC, symBinAddr: 0x100009AD4, symSize: 0x34 }
  - { offsetInCU: 0x6666, offset: 0x13F8F, size: 0x8, addend: 0x0, symName: __ZNKSt3__114__copy_trivialclB8ue170006IK7Vector2S2_Li0EEENS_4pairIPT_PT0_EES6_S6_S8_, symObjAddr: 0x6818, symBinAddr: 0x100009C00, symSize: 0x48 }
  - { offsetInCU: 0x66D1, offset: 0x13FFA, size: 0x8, addend: 0x0, symName: __ZNSt3__14pairIPK7Vector2PS1_EC1B8ue170006IRS3_S4_LPv0EEEOT_OT0_, symObjAddr: 0x6A14, symBinAddr: 0x100009DFC, symSize: 0x3C }
  - { offsetInCU: 0x672D, offset: 0x14056, size: 0x8, addend: 0x0, symName: __ZNSt3__14pairIPK7Vector2PS1_EC2B8ue170006IRS3_S4_LPv0EEEOT_OT0_, symObjAddr: 0x6A50, symBinAddr: 0x100009E38, symSize: 0x34 }
  - { offsetInCU: 0x6789, offset: 0x140B2, size: 0x8, addend: 0x0, symName: __ZNSt3__118__unwrap_iter_implIP7Vector2Lb1EE8__unwrapB8ue170006ES2_, symObjAddr: 0x6A84, symBinAddr: 0x100009E6C, symSize: 0x24 }
  - { offsetInCU: 0x67AB, offset: 0x140D4, size: 0x8, addend: 0x0, symName: __ZNSt3__14pairIPK7Vector2PS1_EC1B8ue170006IS3_S4_LPv0EEEOT_OT0_, symObjAddr: 0x6AA8, symBinAddr: 0x100009E90, symSize: 0x3C }
  - { offsetInCU: 0x6807, offset: 0x14130, size: 0x8, addend: 0x0, symName: __ZNSt3__14pairIPK7Vector2PS1_EC2B8ue170006IS3_S4_LPv0EEEOT_OT0_, symObjAddr: 0x6AE4, symBinAddr: 0x100009ECC, symSize: 0x34 }
  - { offsetInCU: 0x6863, offset: 0x1418C, size: 0x8, addend: 0x0, symName: __ZNSt3__118__unwrap_iter_implIP7Vector2Lb1EE8__rewrapB8ue170006ES2_S2_, symObjAddr: 0x6B18, symBinAddr: 0x100009F00, symSize: 0x50 }
  - { offsetInCU: 0x6893, offset: 0x141BC, size: 0x8, addend: 0x0, symName: __ZNSt3__118__unwrap_iter_implINS_16__deque_iteratorI7Vector2PS2_RS2_PS3_lLl512EEELb0EE8__unwrapB8ue170006ES6_, symObjAddr: 0x6B68, symBinAddr: 0x100009F50, symSize: 0x24 }
  - { offsetInCU: 0x68BA, offset: 0x141E3, size: 0x8, addend: 0x0, symName: __ZNSt3__14pairIPK7Vector2NS_16__deque_iteratorIS1_PS1_RS1_PS5_lLl512EEEEC1B8ue170006IS3_S8_LPv0EEEOT_OT0_, symObjAddr: 0x6B8C, symBinAddr: 0x100009F74, symSize: 0x3C }
  - { offsetInCU: 0x6916, offset: 0x1423F, size: 0x8, addend: 0x0, symName: __ZNSt3__14pairIPK7Vector2NS_16__deque_iteratorIS1_PS1_RS1_PS5_lLl512EEEEC2B8ue170006IS3_S8_LPv0EEEOT_OT0_, symObjAddr: 0x6BC8, symBinAddr: 0x100009FB0, symSize: 0x34 }
  - { offsetInCU: 0x6972, offset: 0x1429B, size: 0x8, addend: 0x0, symName: __ZNSt3__118__unwrap_iter_implIPK7Vector2Lb1EE8__rewrapB8ue170006ES3_S3_, symObjAddr: 0x6C38, symBinAddr: 0x10000A020, symSize: 0x50 }
  - { offsetInCU: 0x69A2, offset: 0x142CB, size: 0x8, addend: 0x0, symName: __ZNSt3__118__unwrap_iter_implINS_16__deque_iteratorI7Vector2PS2_RS2_PS3_lLl512EEELb0EE8__rewrapB8ue170006ES6_S6_, symObjAddr: 0x6C88, symBinAddr: 0x10000A070, symSize: 0x2C }
  - { offsetInCU: 0x69CE, offset: 0x142F7, size: 0x8, addend: 0x0, symName: __ZNSt3__116__deque_iteratorI7Vector2PKS1_RS2_PKS3_lLl512EEC2B8ue170006IPS1_RS1_PS9_EERKNS0_IS1_T_T0_T1_lLl512EEEPNS_9enable_ifIXsr14is_convertibleISC_S3_EE5valueEvE4typeE, symObjAddr: 0x6E60, symBinAddr: 0x10000A09C, symSize: 0x34 }
  - { offsetInCU: 0x26, offset: 0x14428, size: 0x8, addend: 0x0, symName: __Z14ElementInDeque7Vector2NSt3__15dequeIS_NS0_9allocatorIS_EEEE, symObjAddr: 0x0, symBinAddr: 0x10000A0D0, symSize: 0xDC }
  - { offsetInCU: 0x34B6, offset: 0x178B8, size: 0x8, addend: 0x0, symName: __Z14ElementInDeque7Vector2NSt3__15dequeIS_NS0_9allocatorIS_EEEE, symObjAddr: 0x0, symBinAddr: 0x10000A0D0, symSize: 0xDC }
  - { offsetInCU: 0x3F, offset: 0x1794E, size: 0x8, addend: 0x0, symName: _green, symObjAddr: 0xEF8, symBinAddr: 0x100010000, symSize: 0x0 }
  - { offsetInCU: 0x5B, offset: 0x1796A, size: 0x8, addend: 0x0, symName: _darkGreen, symObjAddr: 0xEFC, symBinAddr: 0x100010004, symSize: 0x0 }
  - { offsetInCU: 0x70, offset: 0x1797F, size: 0x8, addend: 0x0, symName: _cellSize, symObjAddr: 0xF00, symBinAddr: 0x100010008, symSize: 0x0 }
  - { offsetInCU: 0x8C, offset: 0x1799B, size: 0x8, addend: 0x0, symName: _cellCount, symObjAddr: 0xF04, symBinAddr: 0x10001000C, symSize: 0x0 }
  - { offsetInCU: 0xA1, offset: 0x179B0, size: 0x8, addend: 0x0, symName: _offset, symObjAddr: 0xF08, symBinAddr: 0x100010010, symSize: 0x0 }
  - { offsetInCU: 0xB6, offset: 0x179C5, size: 0x8, addend: 0x0, symName: _lastUpdateTime, symObjAddr: 0x1D6A8, symBinAddr: 0x100010018, symSize: 0x0 }
  - { offsetInCU: 0x3A4E, offset: 0x1B35D, size: 0x8, addend: 0x0, symName: __ZNSt3__124__put_character_sequenceB8ue170006IcNS_11char_traitsIcEEEERNS_13basic_ostreamIT_T0_EES7_PKS4_m, symObjAddr: 0x378, symBinAddr: 0x10000A524, symSize: 0x1EC }
  - { offsetInCU: 0x53CB, offset: 0x1CCDA, size: 0x8, addend: 0x0, symName: __ZNSt3__1lsB8ue170006INS_11char_traitsIcEEEERNS_13basic_ostreamIcT_EES6_PKc, symObjAddr: 0x2AC, symBinAddr: 0x10000A458, symSize: 0x48 }
  - { offsetInCU: 0x5411, offset: 0x1CD20, size: 0x8, addend: 0x0, symName: __ZNSt3__14endlB8ue170006IcNS_11char_traitsIcEEEERNS_13basic_ostreamIT_T0_EES7_, symObjAddr: 0x320, symBinAddr: 0x10000A4CC, symSize: 0x58 }
  - { offsetInCU: 0x5451, offset: 0x1CD60, size: 0x8, addend: 0x0, symName: __ZNSt3__116__pad_and_outputB8ue170006IcNS_11char_traitsIcEEEENS_19ostreambuf_iteratorIT_T0_EES6_PKS4_S8_S8_RNS_8ios_baseES4_, symObjAddr: 0x5B4, symBinAddr: 0x10000A760, symSize: 0x240 }
  - { offsetInCU: 0x5520, offset: 0x1CE2F, size: 0x8, addend: 0x0, symName: __ZNSt3__112__to_addressB8ue170006IKcEEPT_S3_, symObjAddr: 0xB28, symBinAddr: 0x10000ACC8, symSize: 0x14 }
  - { offsetInCU: 0x5588, offset: 0x1CE97, size: 0x8, addend: 0x0, symName: __ZNSt3__19use_facetB8ue170006INS_5ctypeIcEEEERKT_RKNS_6localeE, symObjAddr: 0xDA8, symBinAddr: 0x10000AF48, symSize: 0x2C }
  - { offsetInCU: 0x5A5F, offset: 0x1D36E, size: 0x8, addend: 0x0, symName: __ZNSt3__118__constexpr_strlenB8ue170006EPKc, symObjAddr: 0xE40, symBinAddr: 0x10000AFE0, symSize: 0x24 }
  - { offsetInCU: 0x7C31, offset: 0x1F540, size: 0x8, addend: 0x0, symName: __Z14eventTriggeredd, symObjAddr: 0x0, symBinAddr: 0x10000A1AC, symSize: 0x84 }
  - { offsetInCU: 0x7C6B, offset: 0x1F57A, size: 0x8, addend: 0x0, symName: _main, symObjAddr: 0x84, symBinAddr: 0x10000A230, symSize: 0x228 }
  - { offsetInCU: 0x7C95, offset: 0x1F5A4, size: 0x8, addend: 0x0, symName: __ZNSt3__113basic_ostreamIcNS_11char_traitsIcEEElsB8ue170006EPFRS3_S4_E, symObjAddr: 0x2F4, symBinAddr: 0x10000A4A0, symSize: 0x2C }
  - { offsetInCU: 0x7CC7, offset: 0x1F5D6, size: 0x8, addend: 0x0, symName: __ZNSt3__111char_traitsIcE6lengthB8ue170006EPKc, symObjAddr: 0x564, symBinAddr: 0x10000A710, symSize: 0x34 }
  - { offsetInCU: 0x7D07, offset: 0x1F616, size: 0x8, addend: 0x0, symName: __ZNKSt3__113basic_ostreamIcNS_11char_traitsIcEEE6sentrycvbB8ue170006Ev, symObjAddr: 0x598, symBinAddr: 0x10000A744, symSize: 0x1C }
  - { offsetInCU: 0x7D2B, offset: 0x1F63A, size: 0x8, addend: 0x0, symName: __ZNSt3__119ostreambuf_iteratorIcNS_11char_traitsIcEEEC1B8ue170006ERNS_13basic_ostreamIcS2_EE, symObjAddr: 0x7F4, symBinAddr: 0x10000A9A0, symSize: 0x34 }
  - { offsetInCU: 0x7D61, offset: 0x1F670, size: 0x8, addend: 0x0, symName: __ZNKSt3__18ios_base5flagsB8ue170006Ev, symObjAddr: 0x828, symBinAddr: 0x10000A9D4, symSize: 0x18 }
  - { offsetInCU: 0x7D87, offset: 0x1F696, size: 0x8, addend: 0x0, symName: __ZNKSt3__19basic_iosIcNS_11char_traitsIcEEE4fillB8ue170006Ev, symObjAddr: 0x840, symBinAddr: 0x10000A9EC, symSize: 0x64 }
  - { offsetInCU: 0x7DAD, offset: 0x1F6BC, size: 0x8, addend: 0x0, symName: __ZNKSt3__119ostreambuf_iteratorIcNS_11char_traitsIcEEE6failedB8ue170006Ev, symObjAddr: 0x8A4, symBinAddr: 0x10000AA50, symSize: 0x24 }
  - { offsetInCU: 0x7DD1, offset: 0x1F6E0, size: 0x8, addend: 0x0, symName: __ZNSt3__19basic_iosIcNS_11char_traitsIcEEE8setstateB8ue170006Ej, symObjAddr: 0x8C8, symBinAddr: 0x10000AA74, symSize: 0x2C }
  - { offsetInCU: 0x7E04, offset: 0x1F713, size: 0x8, addend: 0x0, symName: __ZNKSt3__18ios_base5widthB8ue170006Ev, symObjAddr: 0x900, symBinAddr: 0x10000AAA0, symSize: 0x18 }
  - { offsetInCU: 0x7E2A, offset: 0x1F739, size: 0x8, addend: 0x0, symName: __ZNSt3__115basic_streambufIcNS_11char_traitsIcEEE5sputnB8ue170006EPKcl, symObjAddr: 0x918, symBinAddr: 0x10000AAB8, symSize: 0x3C }
  - { offsetInCU: 0x7E6A, offset: 0x1F779, size: 0x8, addend: 0x0, symName: __ZNSt3__112basic_stringIcNS_11char_traitsIcEENS_9allocatorIcEEEC1B8ue170006Emc, symObjAddr: 0x954, symBinAddr: 0x10000AAF4, symSize: 0x3C }
  - { offsetInCU: 0x7EB0, offset: 0x1F7BF, size: 0x8, addend: 0x0, symName: __ZNKSt3__112basic_stringIcNS_11char_traitsIcEENS_9allocatorIcEEE4dataB8ue170006Ev, symObjAddr: 0x990, symBinAddr: 0x10000AB30, symSize: 0x28 }
  - { offsetInCU: 0x7ED4, offset: 0x1F7E3, size: 0x8, addend: 0x0, symName: __ZNSt3__18ios_base5widthB8ue170006El, symObjAddr: 0x9B8, symBinAddr: 0x10000AB58, symSize: 0x2C }
  - { offsetInCU: 0x7F18, offset: 0x1F827, size: 0x8, addend: 0x0, symName: __ZNSt3__112basic_stringIcNS_11char_traitsIcEENS_9allocatorIcEEEC2B8ue170006Emc, symObjAddr: 0x9E4, symBinAddr: 0x10000AB84, symSize: 0x4C }
  - { offsetInCU: 0x7F63, offset: 0x1F872, size: 0x8, addend: 0x0, symName: __ZNSt3__117__compressed_pairINS_12basic_stringIcNS_11char_traitsIcEENS_9allocatorIcEEE5__repES5_EC1B8ue170006INS_18__default_init_tagESA_EEOT_OT0_, symObjAddr: 0xA30, symBinAddr: 0x10000ABD0, symSize: 0x3C }
  - { offsetInCU: 0x7FB9, offset: 0x1F8C8, size: 0x8, addend: 0x0, symName: __ZNSt3__117__compressed_pairINS_12basic_stringIcNS_11char_traitsIcEENS_9allocatorIcEEE5__repES5_EC2B8ue170006INS_18__default_init_tagESA_EEOT_OT0_, symObjAddr: 0xA6C, symBinAddr: 0x10000AC0C, symSize: 0x3C }
  - { offsetInCU: 0x800F, offset: 0x1F91E, size: 0x8, addend: 0x0, symName: __ZNSt3__122__compressed_pair_elemINS_12basic_stringIcNS_11char_traitsIcEENS_9allocatorIcEEE5__repELi0ELb0EEC2B8ue170006ENS_18__default_init_tagE, symObjAddr: 0xAA8, symBinAddr: 0x10000AC48, symSize: 0x14 }
  - { offsetInCU: 0x8041, offset: 0x1F950, size: 0x8, addend: 0x0, symName: __ZNSt3__122__compressed_pair_elemINS_9allocatorIcEELi1ELb1EEC2B8ue170006ENS_18__default_init_tagE, symObjAddr: 0xABC, symBinAddr: 0x10000AC5C, symSize: 0x2C }
  - { offsetInCU: 0x8073, offset: 0x1F982, size: 0x8, addend: 0x0, symName: __ZNSt3__19allocatorIcEC2B8ue170006Ev, symObjAddr: 0xAE8, symBinAddr: 0x10000AC88, symSize: 0x2C }
  - { offsetInCU: 0x809B, offset: 0x1F9AA, size: 0x8, addend: 0x0, symName: __ZNSt3__116__non_trivial_ifILb1ENS_9allocatorIcEEEC2B8ue170006Ev, symObjAddr: 0xB14, symBinAddr: 0x10000ACB4, symSize: 0x14 }
  - { offsetInCU: 0x80C3, offset: 0x1F9D2, size: 0x8, addend: 0x0, symName: __ZNKSt3__112basic_stringIcNS_11char_traitsIcEENS_9allocatorIcEEE13__get_pointerB8ue170006Ev, symObjAddr: 0xB3C, symBinAddr: 0x10000ACDC, symSize: 0x54 }
  - { offsetInCU: 0x80E7, offset: 0x1F9F6, size: 0x8, addend: 0x0, symName: __ZNKSt3__112basic_stringIcNS_11char_traitsIcEENS_9allocatorIcEEE9__is_longB8ue170006Ev, symObjAddr: 0xB90, symBinAddr: 0x10000AD30, symSize: 0x38 }
  - { offsetInCU: 0x810B, offset: 0x1FA1A, size: 0x8, addend: 0x0, symName: __ZNKSt3__112basic_stringIcNS_11char_traitsIcEENS_9allocatorIcEEE18__get_long_pointerB8ue170006Ev, symObjAddr: 0xBC8, symBinAddr: 0x10000AD68, symSize: 0x28 }
  - { offsetInCU: 0x812F, offset: 0x1FA3E, size: 0x8, addend: 0x0, symName: __ZNKSt3__112basic_stringIcNS_11char_traitsIcEENS_9allocatorIcEEE19__get_short_pointerB8ue170006Ev, symObjAddr: 0xBF0, symBinAddr: 0x10000AD90, symSize: 0x28 }
  - { offsetInCU: 0x8153, offset: 0x1FA62, size: 0x8, addend: 0x0, symName: __ZNKSt3__117__compressed_pairINS_12basic_stringIcNS_11char_traitsIcEENS_9allocatorIcEEE5__repES5_E5firstB8ue170006Ev, symObjAddr: 0xC18, symBinAddr: 0x10000ADB8, symSize: 0x24 }
  - { offsetInCU: 0x8177, offset: 0x1FA86, size: 0x8, addend: 0x0, symName: __ZNKSt3__122__compressed_pair_elemINS_12basic_stringIcNS_11char_traitsIcEENS_9allocatorIcEEE5__repELi0ELb0EE5__getB8ue170006Ev, symObjAddr: 0xC3C, symBinAddr: 0x10000ADDC, symSize: 0x14 }
  - { offsetInCU: 0x819B, offset: 0x1FAAA, size: 0x8, addend: 0x0, symName: __ZNSt3__114pointer_traitsIPKcE10pointer_toB8ue170006ERS1_, symObjAddr: 0xC50, symBinAddr: 0x10000ADF0, symSize: 0x14 }
  - { offsetInCU: 0x81BD, offset: 0x1FACC, size: 0x8, addend: 0x0, symName: __ZNSt3__119ostreambuf_iteratorIcNS_11char_traitsIcEEEC2B8ue170006ERNS_13basic_ostreamIcS2_EE, symObjAddr: 0xC64, symBinAddr: 0x10000AE04, symSize: 0x54 }
  - { offsetInCU: 0x81F3, offset: 0x1FB02, size: 0x8, addend: 0x0, symName: __ZNKSt3__19basic_iosIcNS_11char_traitsIcEEE5rdbufB8ue170006Ev, symObjAddr: 0xCB8, symBinAddr: 0x10000AE58, symSize: 0x24 }
  - { offsetInCU: 0x8219, offset: 0x1FB28, size: 0x8, addend: 0x0, symName: __ZNKSt3__18ios_base5rdbufB8ue170006Ev, symObjAddr: 0xCDC, symBinAddr: 0x10000AE7C, symSize: 0x18 }
  - { offsetInCU: 0x823D, offset: 0x1FB4C, size: 0x8, addend: 0x0, symName: __ZNSt3__111char_traitsIcE11eq_int_typeB8ue170006Eii, symObjAddr: 0xCF4, symBinAddr: 0x10000AE94, symSize: 0x28 }
  - { offsetInCU: 0x826F, offset: 0x1FB7E, size: 0x8, addend: 0x0, symName: __ZNSt3__111char_traitsIcE3eofB8ue170006Ev, symObjAddr: 0xD1C, symBinAddr: 0x10000AEBC, symSize: 0x8 }
  - { offsetInCU: 0x8283, offset: 0x1FB92, size: 0x8, addend: 0x0, symName: __ZNKSt3__19basic_iosIcNS_11char_traitsIcEEE5widenB8ue170006Ec, symObjAddr: 0xD24, symBinAddr: 0x10000AEC4, symSize: 0x84 }
  - { offsetInCU: 0x82EF, offset: 0x1FBFE, size: 0x8, addend: 0x0, symName: __ZNKSt3__15ctypeIcE5widenB8ue170006Ec, symObjAddr: 0xDD4, symBinAddr: 0x10000AF74, symSize: 0x38 }
  - { offsetInCU: 0x8322, offset: 0x1FC31, size: 0x8, addend: 0x0, symName: __ZNSt3__18ios_base8setstateB8ue170006Ej, symObjAddr: 0xE0C, symBinAddr: 0x10000AFAC, symSize: 0x34 }
...
